libogrove.so.0:_ZN14OpenJade_Grove11NodeVisitor10externalIdERNS_4NodeE
libogrove.so.0:_ZN14OpenJade_Grove11NodeVisitor10modelGroupERNS_4NodeE
libogrove.so.0:_ZN14OpenJade_Grove11NodeVisitor11elementTypeERNS_4NodeE
libogrove.so.0:_ZN14OpenJade_Grove11NodeVisitor11pcdataTokenERNS_4NodeE
libogrove.so.0:_ZN14OpenJade_Grove11NodeVisitor11subdocumentERNS_4NodeE
libogrove.so.0:_ZN14OpenJade_Grove11NodeVisitor12attributeDefERNS_4NodeE
libogrove.so.0:_ZN14OpenJade_Grove11NodeVisitor12documentTypeERNS_4NodeE
libogrove.so.0:_ZN14OpenJade_Grove11NodeVisitor12elementTokenERNS_4NodeE
libogrove.so.0:_ZN14OpenJade_Grove11NodeVisitor12externalDataERNS_4NodeE
libogrove.so.0:_ZN14OpenJade_Grove11NodeVisitor12sgmlDocumentERNS_4NodeE
libogrove.so.0:_ZN14OpenJade_Grove11NodeVisitor13defaultEntityERNS_4NodeE
libogrove.so.0:_ZN14OpenJade_Grove11NodeVisitor13sgmlConstantsERNS_4NodeE
libogrove.so.0:_ZN14OpenJade_Grove11NodeVisitor19attributeAssignmentERNS_4NodeE
libogrove.so.0:_ZN14OpenJade_Grove11NodeVisitor19attributeValueTokenERNS_4NodeE
libogrove.so.0:_ZN14OpenJade_Grove11NodeVisitor2piERNS_4NodeE
libogrove.so.0:_ZN14OpenJade_Grove11NodeVisitor5sdataERNS_4NodeE
libogrove.so.0:_ZN14OpenJade_Grove11NodeVisitor6entityERNS_4NodeE
libogrove.so.0:_ZN14OpenJade_Grove11NodeVisitor7elementERNS_4NodeE
libogrove.so.0:_ZN14OpenJade_Grove11NodeVisitor7messageERNS_4NodeE
libogrove.so.0:_ZN14OpenJade_Grove11NodeVisitor7nonSgmlERNS_4NodeE
libogrove.so.0:_ZN14OpenJade_Grove11NodeVisitor8dataCharERNS_4NodeE
libogrove.so.0:_ZN14OpenJade_Grove11NodeVisitor8notationERNS_4NodeE
libogrove.so.0:_ZN14OpenJade_Grove11SdataMapperD0Ev
libogrove.so.0:_ZN14OpenJade_Grove11SdataMapperD1Ev
libogrove.so.0:_ZN14OpenJade_Grove11SdataMapperD2Ev
libogrove.so.0:_ZN14OpenJade_Grove13ComponentName7rcsNameENS0_2IdE
libogrove.so.0:_ZN14OpenJade_Grove13ComponentName8sdqlNameENS0_2IdE
libogrove.so.0:_ZN14OpenJade_Grove15GroveStringList6addRefEv
libogrove.so.0:_ZN14OpenJade_Grove15GroveStringList6appendERKNS_11GroveStringE
libogrove.so.0:_ZN14OpenJade_Grove15GroveStringList7releaseEv
libogrove.so.0:_ZN14OpenJade_Grove15GroveStringListD1Ev
libogrove.so.0:_ZN14OpenJade_Grove15GroveStringListD2Ev
libogrove.so.0:_ZN14OpenJade_Grove24ConstGroveStringListIterC1ERKNS_15GroveStringListE
libogrove.so.0:_ZN14OpenJade_Grove24ConstGroveStringListIterC2ERKNS_15GroveStringListE
libogrove.so.0:_ZNK14OpenJade_Grove11GroveStringeqERKS0_
libogrove.so.0:_ZNK14OpenJade_Grove11SdataMapper8sdataMapENS_11GroveStringES1_Rj
libogrove.so.0:_ZNK14OpenJade_Grove13NamedNodeList15nodeListNoOrderEv
libogrove.so.0:_ZNK14OpenJade_Grove13NamedNodeList8nodeNameERKNS_7NodePtrERNS_11GroveStringE
libogrove.so.0:_ZNK14OpenJade_Grove15GroveStringList4restERNS_18GroveStringListPtrE
libogrove.so.0:_ZNK14OpenJade_Grove15GroveStringList5firstERNS_11GroveStringE
libogrove.so.0:_ZNK14OpenJade_Grove15GroveStringList8canReuseERNS_18GroveStringListPtrE
libogrove.so.0:_ZNK14OpenJade_Grove4Node10firstChildERNS_7NodePtrE
libogrove.so.0:_ZNK14OpenJade_Grove4Node10getContentERNS_11NodeListPtrE
libogrove.so.0:_ZNK14OpenJade_Grove4Node10getImpliedERb
libogrove.so.0:_ZNK14OpenJade_Grove4Node10getNonSgmlERm
libogrove.so.0:_ZNK14OpenJade_Grove4Node11getElementsERNS_16NamedNodeListPtrE
libogrove.so.0:_ZNK14OpenJade_Grove4Node11getEntitiesERNS_16NamedNodeListPtrE
libogrove.so.0:_ZNK14OpenJade_Grove4Node11getIncludedERb
libogrove.so.0:_ZNK14OpenJade_Grove4Node11getMessagesERNS_11NodeListPtrE
libogrove.so.0:_ZNK14OpenJade_Grove4Node11getNotationERNS_7NodePtrE
libogrove.so.0:_ZNK14OpenJade_Grove4Node11getPublicIdERNS_11GroveStringE
libogrove.so.0:_ZNK14OpenJade_Grove4Node11getReferentERNS_7NodePtrE
libogrove.so.0:_ZNK14OpenJade_Grove4Node11getSeverityERNS0_8SeverityE
libogrove.so.0:_ZNK14OpenJade_Grove4Node11getSystemIdERNS_11GroveStringE
libogrove.so.0:_ZNK14OpenJade_Grove4Node11getTokenSepERj
libogrove.so.0:_ZNK14OpenJade_Grove4Node11getTreeRootERNS_7NodePtrE
libogrove.so.0:_ZNK14OpenJade_Grove4Node11nextSiblingERNS_7NodePtrE
libogrove.so.0:_ZNK14OpenJade_Grove4Node12attributeRefEmRNS_7NodePtrE
libogrove.so.0:_ZNK14OpenJade_Grove4Node12elementIndexERm
libogrove.so.0:_ZNK14OpenJade_Grove4Node12firstSiblingERNS_7NodePtrE
libogrove.so.0:_ZNK14OpenJade_Grove4Node12getConnectorERNS0_9Connector4EnumE
libogrove.so.0:_ZNK14OpenJade_Grove4Node12getDefaultedERb
libogrove.so.0:_ZNK14OpenJade_Grove4Node12getGoverningERb
libogrove.so.0:_ZNK14OpenJade_Grove4Node12getGroveRootERNS_7NodePtrE
libogrove.so.0:_ZNK14OpenJade_Grove4Node12getNotationsERNS_16NamedNodeListPtrE
libogrove.so.0:_ZNK14OpenJade_Grove4Node13chunkContainsERKS0_
libogrove.so.0:_ZNK14OpenJade_Grove4Node13getAttributesERNS_16NamedNodeListPtrE
libogrove.so.0:_ZNK14OpenJade_Grove4Node13getEntityNameERNS_11GroveStringE
libogrove.so.0:_ZNK14OpenJade_Grove4Node13getEntityTypeERNS0_10EntityType4EnumE
libogrove.so.0:_ZNK14OpenJade_Grove4Node13getExclusionsERNS_18GroveStringListPtrE
libogrove.so.0:_ZNK14OpenJade_Grove4Node13getExternalIdERNS_7NodePtrE
libogrove.so.0:_ZNK14OpenJade_Grove4Node13getInclusionsERNS_18GroveStringListPtrE
libogrove.so.0:_ZNK14OpenJade_Grove4Node13getModelGroupERNS_7NodePtrE
libogrove.so.0:_ZNK14OpenJade_Grove4Node13getOmitEndTagERb
libogrove.so.0:_ZNK14OpenJade_Grove4Node13getSystemDataERNS_11GroveStringE
libogrove.so.0:_ZNK14OpenJade_Grove4Node13siblingsIndexERm
libogrove.so.0:_ZNK14OpenJade_Grove4Node14getContentTypeERNS0_11ContentType4EnumE
libogrove.so.0:_ZNK14OpenJade_Grove4Node14getElementTypeERNS_7NodePtrE
libogrove.so.0:_ZNK14OpenJade_Grove4Node14nextChunkAfterERNS_7NodePtrE
libogrove.so.0:_ZNK14OpenJade_Grove4Node14queryInterfaceEPKcRPKv
libogrove.so.0:_ZNK14OpenJade_Grove4Node15getAttributeDefERNS_7NodePtrE
libogrove.so.0:_ZNK14OpenJade_Grove4Node15getCurrentGroupERNS_11NodeListPtrE
libogrove.so.0:_ZNK14OpenJade_Grove4Node15getDefaultValueERNS_11NodeListPtrE
libogrove.so.0:_ZNK14OpenJade_Grove4Node15getElementTypesERNS_16NamedNodeListPtrE
libogrove.so.0:_ZNK14OpenJade_Grove4Node15getNotationNameERNS_11GroveStringE
libogrove.so.0:_ZNK14OpenJade_Grove4Node15getOmitStartTagERb
libogrove.so.0:_ZNK14OpenJade_Grove4Node16followSiblingRefEmRNS_7NodePtrE
libogrove.so.0:_ZNK14OpenJade_Grove4Node16getAttributeDefsERNS_16NamedNodeListPtrE
libogrove.so.0:_ZNK14OpenJade_Grove4Node16getContentTokensERNS_11NodeListPtrE
libogrove.so.0:_ZNK14OpenJade_Grove4Node16getDeclValueTypeERNS0_13DeclValueType4EnumE
libogrove.so.0:_ZNK14OpenJade_Grove4Node16getDefaultEntityERNS_7NodePtrE
libogrove.so.0:_ZNK14OpenJade_Grove4Node16getSgmlConstantsERNS_7NodePtrE
libogrove.so.0:_ZNK14OpenJade_Grove4Node16nextChunkSiblingERNS_7NodePtrE
libogrove.so.0:_ZNK14OpenJade_Grove4Node17getMustOmitEndTagERb
libogrove.so.0:_ZNK14OpenJade_Grove4Node17getOccurIndicatorERNS0_14OccurIndicator4EnumE
libogrove.so.0:_ZNK14OpenJade_Grove4Node18getApplicationInfoERNS_11GroveStringE
libogrove.so.0:_ZNK14OpenJade_Grove4Node18getDocumentElementERNS_7NodePtrE
libogrove.so.0:_ZNK14OpenJade_Grove4Node18getGeneralEntitiesERNS_16NamedNodeListPtrE
libogrove.so.0:_ZNK14OpenJade_Grove4Node19getDefaultValueTypeERNS0_16DefaultValueType4EnumE
libogrove.so.0:_ZNK14OpenJade_Grove4Node19getGoverningDoctypeERNS_7NodePtrE
libogrove.so.0:_ZNK14OpenJade_Grove4Node20getDefaultedEntitiesERNS_16NamedNodeListPtrE
libogrove.so.0:_ZNK14OpenJade_Grove4Node20getGeneratedSystemIdERNS_11GroveStringE
libogrove.so.0:_ZNK14OpenJade_Grove4Node20getParameterEntitiesERNS_16NamedNodeListPtrE
libogrove.so.0:_ZNK14OpenJade_Grove4Node23getDoctypesAndLinktypesERNS_16NamedNodeListPtrE
libogrove.so.0:_ZNK14OpenJade_Grove4Node24getCurrentAttributeIndexERl
libogrove.so.0:_ZNK14OpenJade_Grove4Node4hashEv
libogrove.so.0:_ZNK14OpenJade_Grove4Node5getGiERNS_11GroveStringE
libogrove.so.0:_ZNK14OpenJade_Grove4Node5getIdERNS_11GroveStringE
libogrove.so.0:_ZNK14OpenJade_Grove4Node5hasGiENS_11GroveStringE
libogrove.so.0:_ZNK14OpenJade_Grove4Node6tokensERNS_11GroveStringE
libogrove.so.0:_ZNK14OpenJade_Grove4Node7getNameERNS_11GroveStringE
libogrove.so.0:_ZNK14OpenJade_Grove4Node7getTextERNS_11GroveStringE
libogrove.so.0:_ZNK14OpenJade_Grove4Node8getTokenERNS_11GroveStringE
libogrove.so.0:_ZNK14OpenJade_Grove4Node8getValueERNS_11NodeListPtrE
libogrove.so.0:_ZNK14OpenJade_Grove4Node8propertyENS_13ComponentName2IdERKNS_11SdataMapperERNS_13PropertyValueE
libogrove.so.0:_ZNK14OpenJade_Grove4Node9charChunkERKNS_11SdataMapperERNS_11GroveStringE
libogrove.so.0:_ZNK14OpenJade_Grove4Node9getEntityERNS_7NodePtrE
libogrove.so.0:_ZNK14OpenJade_Grove4Node9getEpilogERNS_11NodeListPtrE
libogrove.so.0:_ZNK14OpenJade_Grove4Node9getOriginERNS_7NodePtrE
libogrove.so.0:_ZNK14OpenJade_Grove4Node9getParentERNS_7NodePtrE
libogrove.so.0:_ZNK14OpenJade_Grove4Node9getPrologERNS_11NodeListPtrE
libogrove.so.0:_ZNK14OpenJade_Grove4Node9getTokensERNS_18GroveStringListPtrE
libogrove.so.0:_ZNK14OpenJade_Grove8NodeList3refEmRNS_7NodePtrE
libospgrove.so.0:_ZN6OpenSP10EntityNode6acceptERN14OpenJade_Grove11NodeVisitorE
libospgrove.so.0:_ZN6OpenSP10EntityNodeC1EPKNS_9GroveImplEPKNS_6EntityE
libospgrove.so.0:_ZN6OpenSP10EntityNodeC2EPKNS_9GroveImplEPKNS_6EntityE
libospgrove.so.0:_ZN6OpenSP10SubdocNode3addERNS_9GroveImplERKNS_17SubdocEntityEventE
libospgrove.so.0:_ZN6OpenSP11ElementNode19makeAttElementChunkERNS_9GroveImplERKNS_17StartElementEventERb
libospgrove.so.0:_ZN6OpenSP11ElementNode6acceptERN14OpenJade_Grove11NodeVisitorE
libospgrove.so.0:_ZN6OpenSP11MessageNode6acceptERN14OpenJade_Grove11NodeVisitorE
libospgrove.so.0:_ZN6OpenSP11MessageNodeC1EPKNS_9GroveImplEPKNS_11MessageItemE
libospgrove.so.0:_ZN6OpenSP11MessageNodeC2EPKNS_9GroveImplEPKNS_11MessageItemE
libospgrove.so.0:_ZN6OpenSP11NonSgmlNode3addERNS_9GroveImplERKNS_16NonSgmlCharEventE
libospgrove.so.0:_ZN6OpenSP12GroveBuilder11setBlockingEb
libospgrove.so.0:_ZN6OpenSP12GroveBuilder4makeEjPNS_9MessengerEPNS_16MessageFormatterEbRKNS_8ConstPtrINS_2SdEEERKNS5_INS_6SyntaxEEESD_RN14OpenJade_Grove7NodePtrE
libospgrove.so.0:_ZN6OpenSP12GroveBuilder4makeEjPNS_9MessengerEPNS_16MessageFormatterEbRN14OpenJade_Grove7NodePtrE
libospgrove.so.0:_ZN6OpenSP12NotationNode6acceptERN14OpenJade_Grove11NodeVisitorE
libospgrove.so.0:_ZN6OpenSP12NotationNodeC1EPKNS_9GroveImplEPKNS_8NotationE
libospgrove.so.0:_ZN6OpenSP12NotationNodeC2EPKNS_9GroveImplEPKNS_8NotationE
libospgrove.so.0:_ZN6OpenSP12PiEntityNode3addERNS_9GroveImplEPKNS_6EntityERKNS_8LocationE
libospgrove.so.0:_ZN6OpenSP14ExternalIdNode6acceptERN14OpenJade_Grove11NodeVisitorE
libospgrove.so.0:_ZN6OpenSP14ExternalIdNodeC1EPKNS_9GroveImplE
libospgrove.so.0:_ZN6OpenSP14ExternalIdNodeC2EPKNS_9GroveImplE
libospgrove.so.0:_ZN6OpenSP14ModelGroupNode6acceptERN14OpenJade_Grove11NodeVisitorE
libospgrove.so.0:_ZN6OpenSP14ModelGroupNode8makeNodeERN14OpenJade_Grove7NodePtrEj
libospgrove.so.0:_ZN6OpenSP15ElementTypeNode6acceptERN14OpenJade_Grove11NodeVisitorE
libospgrove.so.0:_ZN6OpenSP15PcdataTokenNode6acceptERN14OpenJade_Grove11NodeVisitorE
libospgrove.so.0:_ZN6OpenSP16AttributeDefNode6acceptERN14OpenJade_Grove11NodeVisitorE
libospgrove.so.0:_ZN6OpenSP16DocumentTypeNode6acceptERN14OpenJade_Grove11NodeVisitorE
libospgrove.so.0:_ZN6OpenSP16DocumentTypeNodeC1EPKNS_9GroveImplEPKNS_3DtdE
libospgrove.so.0:_ZN6OpenSP16DocumentTypeNodeC2EPKNS_9GroveImplEPKNS_3DtdE
libospgrove.so.0:_ZN6OpenSP16ElementTokenNode6acceptERN14OpenJade_Grove11NodeVisitorE
libospgrove.so.0:_ZN6OpenSP16ElementsNodeListC1EPKNS_9GroveImplEPKNS_5ChunkE
libospgrove.so.0:_ZN6OpenSP16ElementsNodeListC2EPKNS_9GroveImplEPKNS_5ChunkE
libospgrove.so.0:_ZN6OpenSP16EntitiesNodeListC1EPKNS_9GroveImplERKNS_27ConstNamedResourceTableIterINS_6EntityEEE
libospgrove.so.0:_ZN6OpenSP16EntitiesNodeListC2EPKNS_9GroveImplERKNS_27ConstNamedResourceTableIterINS_6EntityEEE
libospgrove.so.0:_ZN6OpenSP16ExternalDataNode3addERNS_9GroveImplERKNS_23ExternalDataEntityEventE
libospgrove.so.0:_ZN6OpenSP16SgmlDocumentNode6acceptERN14OpenJade_Grove11NodeVisitorE
libospgrove.so.0:_ZN6OpenSP17AttributeAsgnNode6acceptERN14OpenJade_Grove11NodeVisitorE
libospgrove.so.0:_ZN6OpenSP17AttributeAsgnNodeC1EPKNS_9GroveImplEm
libospgrove.so.0:_ZN6OpenSP17AttributeAsgnNodeC2EPKNS_9GroveImplEm
libospgrove.so.0:_ZN6OpenSP17DefaultEntityNode6acceptERN14OpenJade_Grove11NodeVisitorE
libospgrove.so.0:_ZN6OpenSP17DefaultEntityNodeC1EPKNS_9GroveImplEPKNS_6EntityE
libospgrove.so.0:_ZN6OpenSP17DefaultEntityNodeC2EPKNS_9GroveImplEPKNS_6EntityE
libospgrove.so.0:_ZN6OpenSP17NotationsNodeListC1EPKNS_9GroveImplERKNS_27ConstNamedResourceTableIterINS_8NotationEEE
libospgrove.so.0:_ZN6OpenSP17NotationsNodeListC2EPKNS_9GroveImplERKNS_27ConstNamedResourceTableIterINS_8NotationEEE
libospgrove.so.0:_ZN6OpenSP17SgmlConstantsNode6acceptERN14OpenJade_Grove11NodeVisitorE
libospgrove.so.0:_ZN6OpenSP17SgmlConstantsNodeC1EPKNS_9GroveImplE
libospgrove.so.0:_ZN6OpenSP17SgmlConstantsNodeC2EPKNS_9GroveImplE
libospgrove.so.0:_ZN6OpenSP19DocEntitiesNodeListC1EPKNS_9GroveImplE
libospgrove.so.0:_ZN6OpenSP19DocEntitiesNodeListC2EPKNS_9GroveImplE
libospgrove.so.0:_ZN6OpenSP20ContentTokenNodeBaseC1EPKNS_9GroveImplERKNS_11ElementTypeEPNS_14ModelGroupNodeE
libospgrove.so.0:_ZN6OpenSP20ContentTokenNodeBaseC2EPKNS_9GroveImplERKNS_11ElementTypeEPNS_14ModelGroupNodeE
libospgrove.so.0:_ZN6OpenSP20ContentTokenNodeBaseD0Ev
libospgrove.so.0:_ZN6OpenSP20ContentTokenNodeBaseD1Ev
libospgrove.so.0:_ZN6OpenSP20ContentTokenNodeBaseD2Ev
libospgrove.so.0:_ZN6OpenSP20ContentTokenNodeList4nextEv
libospgrove.so.0:_ZN6OpenSP20ContentTokenNodeListC1EPKNS_9GroveImplERNS_14ModelGroupNodeEj
libospgrove.so.0:_ZN6OpenSP20ContentTokenNodeListC2EPKNS_9GroveImplERNS_14ModelGroupNodeEj
libospgrove.so.0:_ZN6OpenSP20ElementTypesNodeListC1EPKNS_9GroveImplERKNS_19ConstNamedTableIterINS_11ElementTypeEEE
libospgrove.so.0:_ZN6OpenSP20ElementTypesNodeListC2EPKNS_9GroveImplERKNS_19ConstNamedTableIterINS_11ElementTypeEEE
libospgrove.so.0:_ZN6OpenSP20EntityExternalIdNodeC1EPKNS_9GroveImplEPKNS_14ExternalEntityE
libospgrove.so.0:_ZN6OpenSP20EntityExternalIdNodeC2EPKNS_9GroveImplEPKNS_14ExternalEntityE
libospgrove.so.0:_ZN6OpenSP21EntityAttributeOriginC1EPKNS_18ExternalDataEntityE
libospgrove.so.0:_ZN6OpenSP21EntityAttributeOriginC2EPKNS_18ExternalDataEntityE
libospgrove.so.0:_ZN6OpenSP22ElementAttributeOriginC1EPKNS_12ElementChunkE
libospgrove.so.0:_ZN6OpenSP22ElementAttributeOriginC2EPKNS_12ElementChunkE
libospgrove.so.0:_ZN6OpenSP22NotationExternalIdNodeC1EPKNS_9GroveImplEPKNS_8NotationE
libospgrove.so.0:_ZN6OpenSP22NotationExternalIdNodeC2EPKNS_9GroveImplEPKNS_8NotationE
libospgrove.so.0:_ZN6OpenSP22NotationsNamedNodeListC1EPKNS_9GroveImplEPKNS_3DtdE
libospgrove.so.0:_ZN6OpenSP22NotationsNamedNodeListC2EPKNS_9GroveImplEPKNS_3DtdE
libospgrove.so.0:_ZN6OpenSP23AttributeValueTokenNode6acceptERN14OpenJade_Grove11NodeVisitorE
libospgrove.so.0:_ZN6OpenSP23AttributeValueTokenNodeC1EPKNS_9GroveImplEPKNS_23TokenizedAttributeValueEmm
libospgrove.so.0:_ZN6OpenSP23AttributeValueTokenNodeC2EPKNS_9GroveImplEPKNS_23TokenizedAttributeValueEmm
libospgrove.so.0:_ZN6OpenSP23CdataAttributeValueNode10skipBoringERNS_8TextIterE
libospgrove.so.0:_ZN6OpenSP23CdataAttributeValueNode6acceptERN14OpenJade_Grove11NodeVisitorE
libospgrove.so.0:_ZN6OpenSP23CdataAttributeValueNodeC1EPKNS_9GroveImplEPKNS_14AttributeValueEmRKNS_8TextIterEm
libospgrove.so.0:_ZN6OpenSP23CdataAttributeValueNodeC2EPKNS_9GroveImplEPKNS_14AttributeValueEmRKNS_8TextIterEm
libospgrove.so.0:_ZN6OpenSP23EntityAttributeAsgnNodeC1EPKNS_9GroveImplEmPKNS_18ExternalDataEntityE
libospgrove.so.0:_ZN6OpenSP23EntityAttributeAsgnNodeC2EPKNS_9GroveImplEmPKNS_18ExternalDataEntityE
libospgrove.so.0:_ZN6OpenSP24ElementAttributeAsgnNodeC1EPKNS_9GroveImplEmPKNS_12ElementChunkE
libospgrove.so.0:_ZN6OpenSP24ElementAttributeAsgnNodeC2EPKNS_9GroveImplEmPKNS_12ElementChunkE
libospgrove.so.0:_ZN6OpenSP24GroveBuilderEventHandler10endElementEPNS_15EndElementEventE
libospgrove.so.0:_ZN6OpenSP24GroveBuilderEventHandler11nonSgmlCharEPNS_16NonSgmlCharEventE
libospgrove.so.0:_ZN6OpenSP24GroveBuilderEventHandler11sdataEntityEPNS_16SdataEntityEventE
libospgrove.so.0:_ZN6OpenSP24GroveBuilderEventHandler12startElementEPNS_17StartElementEventE
libospgrove.so.0:_ZN6OpenSP24GroveBuilderEventHandler12subdocEntityEPNS_17SubdocEntityEventE
libospgrove.so.0:_ZN6OpenSP24GroveBuilderEventHandler15entityDefaultedEPNS_20EntityDefaultedEventE
libospgrove.so.0:_ZN6OpenSP24GroveBuilderEventHandler18externalDataEntityEPNS_23ExternalDataEntityEventE
libospgrove.so.0:_ZN6OpenSP24GroveBuilderEventHandler2piEPNS_7PiEventE
libospgrove.so.0:_ZN6OpenSP24GroveBuilderEventHandler4dataEPNS_9DataEventE
libospgrove.so.0:_ZN6OpenSP24GroveBuilderEventHandler7appinfoEPNS_12AppinfoEventE
libospgrove.so.0:_ZN6OpenSP24GroveBuilderEventHandler9endPrologEPNS_14EndPrologEventE
libospgrove.so.0:_ZN6OpenSP24GroveBuilderEventHandlerC1EjPNS_9MessengerEPNS_16MessageFormatterE
libospgrove.so.0:_ZN6OpenSP24GroveBuilderEventHandlerC2EjPNS_9MessengerEPNS_16MessageFormatterE
libospgrove.so.0:_ZN6OpenSP25ElementTypesNamedNodeListC1EPKNS_9GroveImplEPKNS_3DtdE
libospgrove.so.0:_ZN6OpenSP25ElementTypesNamedNodeListC2EPKNS_9GroveImplEPKNS_3DtdE
libospgrove.so.0:_ZN6OpenSP26NotationAttributeDefOriginC1EPKNS_8NotationE
libospgrove.so.0:_ZN6OpenSP26NotationAttributeDefOriginC2EPKNS_8NotationE
libospgrove.so.0:_ZN6OpenSP28GeneralEntitiesNamedNodeListC1EPKNS_9GroveImplEPKNS_3DtdE
libospgrove.so.0:_ZN6OpenSP28GeneralEntitiesNamedNodeListC2EPKNS_9GroveImplEPKNS_3DtdE
libospgrove.so.0:_ZN6OpenSP29ElementTypeAttributeDefOriginC1EPKNS_11ElementTypeE
libospgrove.so.0:_ZN6OpenSP29ElementTypeAttributeDefOriginC2EPKNS_11ElementTypeE
libospgrove.so.0:_ZN6OpenSP29EntityAttributeValueTokenNodeC1EPKNS_9GroveImplEPKNS_23TokenizedAttributeValueEmmPKNS_18ExternalDataEntityE
libospgrove.so.0:_ZN6OpenSP29EntityAttributeValueTokenNodeC2EPKNS_9GroveImplEPKNS_23TokenizedAttributeValueEmmPKNS_18ExternalDataEntityE
libospgrove.so.0:_ZN6OpenSP29EntityCdataAttributeValueNodeC1EPKNS_9GroveImplEPKNS_14AttributeValueEmRKNS_8TextIterEmPKNS_18ExternalDataEntityE
libospgrove.so.0:_ZN6OpenSP29EntityCdataAttributeValueNodeC2EPKNS_9GroveImplEPKNS_14AttributeValueEmRKNS_8TextIterEmPKNS_18ExternalDataEntityE
libospgrove.so.0:_ZN6OpenSP30ElementAttributeValueTokenNodeC1EPKNS_9GroveImplEPKNS_23TokenizedAttributeValueEmmPKNS_12ElementChunkE
libospgrove.so.0:_ZN6OpenSP30ElementAttributeValueTokenNodeC2EPKNS_9GroveImplEPKNS_23TokenizedAttributeValueEmmPKNS_12ElementChunkE
libospgrove.so.0:_ZN6OpenSP30ElementCdataAttributeValueNodeC1EPKNS_9GroveImplEPKNS_14AttributeValueEmRKNS_8TextIterEmPKNS_12ElementChunkE
libospgrove.so.0:_ZN6OpenSP30ElementCdataAttributeValueNodeC2EPKNS_9GroveImplEPKNS_14AttributeValueEmRKNS_8TextIterEmPKNS_12ElementChunkE
libospgrove.so.0:_ZN6OpenSP30ParameterEntitiesNamedNodeListC1EPKNS_9GroveImplEPKNS_3DtdE
libospgrove.so.0:_ZN6OpenSP30ParameterEntitiesNamedNodeListC2EPKNS_9GroveImplEPKNS_3DtdE
libospgrove.so.0:_ZN6OpenSP31GroveBuilderMessageEventHandler15makeInitialRootERN14OpenJade_Grove7NodePtrE
libospgrove.so.0:_ZN6OpenSP31GroveBuilderMessageEventHandler5setSdERKNS_8ConstPtrINS_2SdEEERKNS1_INS_6SyntaxEEES9_
libospgrove.so.0:_ZN6OpenSP31GroveBuilderMessageEventHandler7messageEPNS_12MessageEventE
libospgrove.so.0:_ZN6OpenSP31GroveBuilderMessageEventHandler8sgmlDeclEPNS_13SgmlDeclEventE
libospgrove.so.0:_ZN6OpenSP31GroveBuilderMessageEventHandlerC1EjPNS_9MessengerEPNS_16MessageFormatterE
libospgrove.so.0:_ZN6OpenSP31GroveBuilderMessageEventHandlerC2EjPNS_9MessengerEPNS_16MessageFormatterE
libospgrove.so.0:_ZN6OpenSP31GroveBuilderMessageEventHandlerD0Ev
libospgrove.so.0:_ZN6OpenSP31GroveBuilderMessageEventHandlerD1Ev
libospgrove.so.0:_ZN6OpenSP31GroveBuilderMessageEventHandlerD2Ev
libospgrove.so.0:_ZN6OpenSP31NotationAttributeValueTokenNodeC1EPKNS_9GroveImplEPKNS_23TokenizedAttributeValueEmmPKNS_8NotationE
libospgrove.so.0:_ZN6OpenSP31NotationAttributeValueTokenNodeC2EPKNS_9GroveImplEPKNS_23TokenizedAttributeValueEmmPKNS_8NotationE
libospgrove.so.0:_ZN6OpenSP31NotationCdataAttributeValueNodeC1EPKNS_9GroveImplEPKNS_14AttributeValueEmRKNS_8TextIterEmPKNS_8NotationE
libospgrove.so.0:_ZN6OpenSP31NotationCdataAttributeValueNodeC2EPKNS_9GroveImplEPKNS_14AttributeValueEmRKNS_8TextIterEmPKNS_8NotationE
libospgrove.so.0:_ZN6OpenSP33DoctypesAndLinktypesNamedNodeListC1EPKNS_9GroveImplE
libospgrove.so.0:_ZN6OpenSP33DoctypesAndLinktypesNamedNodeListC2EPKNS_9GroveImplE
libospgrove.so.0:_ZN6OpenSP34ElementTypeAttributeValueTokenNodeC1EPKNS_9GroveImplEPKNS_23TokenizedAttributeValueEmmPKNS_11ElementTypeE
libospgrove.so.0:_ZN6OpenSP34ElementTypeAttributeValueTokenNodeC2EPKNS_9GroveImplEPKNS_23TokenizedAttributeValueEmmPKNS_11ElementTypeE
libospgrove.so.0:_ZN6OpenSP34ElementTypeCdataAttributeValueNodeC1EPKNS_9GroveImplEPKNS_14AttributeValueEmRKNS_8TextIterEmPKNS_11ElementTypeE
libospgrove.so.0:_ZN6OpenSP34ElementTypeCdataAttributeValueNodeC2EPKNS_9GroveImplEPKNS_14AttributeValueEmRKNS_8TextIterEmPKNS_11ElementTypeE
libospgrove.so.0:_ZN6OpenSP44ElementTypeCurrentGroupAttributeDefsNodeListC1EPKNS_9GroveImplERKNS_19ConstNamedTableIterINS_11ElementTypeEEEm
libospgrove.so.0:_ZN6OpenSP44ElementTypeCurrentGroupAttributeDefsNodeListC2EPKNS_9GroveImplERKNS_19ConstNamedTableIterINS_11ElementTypeEEEm
libospgrove.so.0:_ZN6OpenSP6PiNode3addERNS_9GroveImplERKNS_7PiEventE
libospgrove.so.0:_ZN6OpenSP8BaseNode6addRefEv
libospgrove.so.0:_ZN6OpenSP8BaseNode7releaseEv
libospgrove.so.0:_ZN6OpenSP8BaseNodeD0Ev
libospgrove.so.0:_ZN6OpenSP8BaseNodeD1Ev
libospgrove.so.0:_ZN6OpenSP8BaseNodeD2Ev
libospgrove.so.0:_ZN6OpenSP8DataNode6acceptERN14OpenJade_Grove11NodeVisitorE
libospgrove.so.0:_ZN6OpenSP8GroveApp14generateEventsEPNS_22ErrorCountEventHandlerE
libospgrove.so.0:_ZN6OpenSP8GroveApp15dispatchMessageERKNS_7MessageE
libospgrove.so.0:_ZN6OpenSP8GroveApp16makeEventHandlerEv
libospgrove.so.0:_ZN6OpenSP8GroveAppC1EPKc
libospgrove.so.0:_ZN6OpenSP8GroveAppC2EPKc
libospgrove.so.0:_ZN6OpenSP9GroveImpl10addBarrierEv
libospgrove.so.0:_ZN6OpenSP9GroveImpl10setAppinfoERKNS_6StringIjEE
libospgrove.so.0:_ZN6OpenSP9GroveImpl11allocFinishEm
libospgrove.so.0:_ZN6OpenSP9GroveImpl11setCompleteEv
libospgrove.so.0:_ZN6OpenSP9GroveImpl12finishPrologEv
libospgrove.so.0:_ZN6OpenSP9GroveImpl14storeLocOriginERKNS_8ConstPtrINS_6OriginEEE
libospgrove.so.0:_ZN6OpenSP9GroveImpl18addDefaultedEntityERKNS_8ConstPtrINS_6EntityEEE
libospgrove.so.0:_ZN6OpenSP9GroveImpl21finishDocumentElementEv
libospgrove.so.0:_ZN6OpenSP9GroveImpl5setSdERKNS_8ConstPtrINS_2SdEEERKNS1_INS_6SyntaxEEES9_
libospgrove.so.0:_ZN6OpenSP9GroveImplC1Ej
libospgrove.so.0:_ZN6OpenSP9GroveImplC2Ej
libospgrove.so.0:_ZN6OpenSP9GroveImplD1Ev
libospgrove.so.0:_ZN6OpenSP9GroveImplD2Ev
libospgrove.so.0:_ZN6OpenSP9SdataNode3addERNS_9GroveImplERKNS_16SdataEntityEventE
libospgrove.so.0:_ZNK6OpenSP10EntityNode12getDefaultedERb
libospgrove.so.0:_ZNK6OpenSP10EntityNode33getOriginToSubnodeRelPropertyNameERN14OpenJade_Grove13ComponentName2IdE
libospgrove.so.0:_ZNK6OpenSP10EntityNode4sameERKNS_8BaseNodeE
libospgrove.so.0:_ZNK6OpenSP10EntityNode5same2EPKS0_
libospgrove.so.0:_ZNK6OpenSP10EntityNode9getOriginERN14OpenJade_Grove7NodePtrE
libospgrove.so.0:_ZNK6OpenSP10SdataChunk15setNodePtrFirstERN14OpenJade_Grove7NodePtrEPKNS_8BaseNodeE
libospgrove.so.0:_ZNK6OpenSP11ElementNode10firstChildERN14OpenJade_Grove7NodePtrE
libospgrove.so.0:_ZNK6OpenSP11ElementNode10getContentERN14OpenJade_Grove11NodeListPtrE
libospgrove.so.0:_ZNK6OpenSP11ElementNode11getIncludedERb
libospgrove.so.0:_ZNK6OpenSP11ElementNode12attributeRefEmRN14OpenJade_Grove7NodePtrE
libospgrove.so.0:_ZNK6OpenSP11ElementNode12elementIndexERm
libospgrove.so.0:_ZNK6OpenSP11ElementNode13getAttributesERN14OpenJade_Grove16NamedNodeListPtrE
libospgrove.so.0:_ZNK6OpenSP11ElementNode14getElementTypeERN14OpenJade_Grove7NodePtrE
libospgrove.so.0:_ZNK6OpenSP11ElementNode14nextChunkAfterERN14OpenJade_Grove7NodePtrE
libospgrove.so.0:_ZNK6OpenSP11ElementNode16nextChunkSiblingERN14OpenJade_Grove7NodePtrE
libospgrove.so.0:_ZNK6OpenSP11ElementNode17getMustOmitEndTagERb
libospgrove.so.0:_ZNK6OpenSP11ElementNode5getGiERN14OpenJade_Grove11GroveStringE
libospgrove.so.0:_ZNK6OpenSP11ElementNode5getIdERN14OpenJade_Grove11GroveStringE
libospgrove.so.0:_ZNK6OpenSP11ElementNode5hasGiEN14OpenJade_Grove11GroveStringE
libospgrove.so.0:_ZNK6OpenSP11MessageNode11getLocationERNS_8LocationE
libospgrove.so.0:_ZNK6OpenSP11MessageNode11getSeverityERN14OpenJade_Grove4Node8SeverityE
libospgrove.so.0:_ZNK6OpenSP11MessageNode12firstSiblingERN14OpenJade_Grove7NodePtrE
libospgrove.so.0:_ZNK6OpenSP11MessageNode13siblingsIndexERm
libospgrove.so.0:_ZNK6OpenSP11MessageNode16nextChunkSiblingERN14OpenJade_Grove7NodePtrE
libospgrove.so.0:_ZNK6OpenSP11MessageNode4sameERKNS_8BaseNodeE
libospgrove.so.0:_ZNK6OpenSP11MessageNode5same2EPKS0_
libospgrove.so.0:_ZNK6OpenSP11MessageNode7getTextERN14OpenJade_Grove11GroveStringE
libospgrove.so.0:_ZNK6OpenSP11MessageNode9getOriginERN14OpenJade_Grove7NodePtrE
libospgrove.so.0:_ZNK6OpenSP11NonSgmlNode10getNonSgmlERm
libospgrove.so.0:_ZNK6OpenSP11NonSgmlNode9charChunkERKN14OpenJade_Grove11SdataMapperERNS1_11GroveStringE
libospgrove.so.0:_ZNK6OpenSP11SubdocChunk15setNodePtrFirstERN14OpenJade_Grove7NodePtrEPKNS_8BaseNodeE
libospgrove.so.0:_ZNK6OpenSP12ElementChunk12getFollowingEPKNS_9GroveImplERPKNS_5ChunkERm
libospgrove.so.0:_ZNK6OpenSP12ElementChunk14attributeValueEmRKNS_9GroveImplE
libospgrove.so.0:_ZNK6OpenSP12ElementChunk14mustOmitEndTagEv
libospgrove.so.0:_ZNK6OpenSP12ElementChunk15setNodePtrFirstERN14OpenJade_Grove7NodePtrEPKNS_11ElementNodeE
libospgrove.so.0:_ZNK6OpenSP12ElementChunk15setNodePtrFirstERN14OpenJade_Grove7NodePtrEPKNS_8BaseNodeE
libospgrove.so.0:_ZNK6OpenSP12ElementChunk15setNodePtrFirstERN14OpenJade_Grove7NodePtrEPKNS_8DataNodeE
libospgrove.so.0:_ZNK6OpenSP12ElementChunk5afterEv
libospgrove.so.0:_ZNK6OpenSP12ElementChunk8includedEv
libospgrove.so.0:_ZNK6OpenSP12NonSgmlChunk15setNodePtrFirstERN14OpenJade_Grove7NodePtrEPKNS_8BaseNodeE
libospgrove.so.0:_ZNK6OpenSP12NotationNode11getLocationERNS_8LocationE
libospgrove.so.0:_ZNK6OpenSP12NotationNode13getExternalIdERN14OpenJade_Grove7NodePtrE
libospgrove.so.0:_ZNK6OpenSP12NotationNode16getAttributeDefsERN14OpenJade_Grove16NamedNodeListPtrE
libospgrove.so.0:_ZNK6OpenSP12NotationNode4hashEv
libospgrove.so.0:_ZNK6OpenSP12NotationNode4sameERKNS_8BaseNodeE
libospgrove.so.0:_ZNK6OpenSP12NotationNode5same2EPKS0_
libospgrove.so.0:_ZNK6OpenSP12NotationNode7getNameERN14OpenJade_Grove11GroveStringE
libospgrove.so.0:_ZNK6OpenSP12NotationNode9getOriginERN14OpenJade_Grove7NodePtrE
libospgrove.so.0:_ZNK6OpenSP12PiEntityNode13getSystemDataERN14OpenJade_Grove11GroveStringE
libospgrove.so.0:_ZNK6OpenSP13EntityRefNode13getEntityNameERN14OpenJade_Grove11GroveStringE
libospgrove.so.0:_ZNK6OpenSP13EntityRefNode9getEntityERN14OpenJade_Grove7NodePtrE
libospgrove.so.0:_ZNK6OpenSP13EpilogPiChunk15getFirstSiblingEPKNS_9GroveImplERPKNS_5ChunkE
libospgrove.so.0:_ZNK6OpenSP13PiEntityChunk15setNodePtrFirstERN14OpenJade_Grove7NodePtrEPKNS_8BaseNodeE
libospgrove.so.0:_ZNK6OpenSP13PrologPiChunk15getFirstSiblingEPKNS_9GroveImplERPKNS_5ChunkE
libospgrove.so.0:_ZNK6OpenSP14EntityNodeBase11getLocationERNS_8LocationE
libospgrove.so.0:_ZNK6OpenSP14EntityNodeBase11getNotationERN14OpenJade_Grove7NodePtrE
libospgrove.so.0:_ZNK6OpenSP14EntityNodeBase12attributeRefEmRN14OpenJade_Grove7NodePtrE
libospgrove.so.0:_ZNK6OpenSP14EntityNodeBase13getAttributesERN14OpenJade_Grove16NamedNodeListPtrE
libospgrove.so.0:_ZNK6OpenSP14EntityNodeBase13getEntityTypeERN14OpenJade_Grove4Node10EntityType4EnumE
libospgrove.so.0:_ZNK6OpenSP14EntityNodeBase13getExternalIdERN14OpenJade_Grove7NodePtrE
libospgrove.so.0:_ZNK6OpenSP14EntityNodeBase15getNotationNameERN14OpenJade_Grove11GroveStringE
libospgrove.so.0:_ZNK6OpenSP14EntityNodeBase4hashEv
libospgrove.so.0:_ZNK6OpenSP14EntityNodeBase7getNameERN14OpenJade_Grove11GroveStringE
libospgrove.so.0:_ZNK6OpenSP14EntityNodeBase7getTextERN14OpenJade_Grove11GroveStringE
libospgrove.so.0:_ZNK6OpenSP14ExternalIdNode11getPublicIdERN14OpenJade_Grove11GroveStringE
libospgrove.so.0:_ZNK6OpenSP14ExternalIdNode11getSystemIdERN14OpenJade_Grove11GroveStringE
libospgrove.so.0:_ZNK6OpenSP14ExternalIdNode20getGeneratedSystemIdERN14OpenJade_Grove11GroveStringE
libospgrove.so.0:_ZNK6OpenSP14ExternalIdNode4sameERKNS_8BaseNodeE
libospgrove.so.0:_ZNK6OpenSP14ExternalIdNode5same2EPKS0_
libospgrove.so.0:_ZNK6OpenSP14LocOriginChunk12getFollowingEPKNS_9GroveImplERPKNS_5ChunkERm
libospgrove.so.0:_ZNK6OpenSP14LocOriginChunk12getLocOriginERPKNS_6OriginE
libospgrove.so.0:_ZNK6OpenSP14LocOriginChunk15setNodePtrFirstERN14OpenJade_Grove7NodePtrEPKNS_11ElementNodeE
libospgrove.so.0:_ZNK6OpenSP14LocOriginChunk15setNodePtrFirstERN14OpenJade_Grove7NodePtrEPKNS_8BaseNodeE
libospgrove.so.0:_ZNK6OpenSP14LocOriginChunk15setNodePtrFirstERN14OpenJade_Grove7NodePtrEPKNS_8DataNodeE
libospgrove.so.0:_ZNK6OpenSP14LocOriginChunk5afterEv
libospgrove.so.0:_ZNK6OpenSP14ModelGroupNode12getConnectorERN14OpenJade_Grove4Node9Connector4EnumE
libospgrove.so.0:_ZNK6OpenSP14ModelGroupNode16getContentTokensERN14OpenJade_Grove11NodeListPtrE
libospgrove.so.0:_ZNK6OpenSP14ModelGroupNode17getOccurIndicatorERN14OpenJade_Grove4Node14OccurIndicator4EnumE
libospgrove.so.0:_ZNK6OpenSP14ModelGroupNode33getOriginToSubnodeRelPropertyNameERN14OpenJade_Grove13ComponentName2IdE
libospgrove.so.0:_ZNK6OpenSP14ModelGroupNode4hashEv
libospgrove.so.0:_ZNK6OpenSP14ModelGroupNode4sameERKNS_8BaseNodeE
libospgrove.so.0:_ZNK6OpenSP14ModelGroupNode5same2EPKS0_
libospgrove.so.0:_ZNK6OpenSP15AttElementChunk14attributeValueEmRKNS_9GroveImplE
libospgrove.so.0:_ZNK6OpenSP15AttElementChunk14mustOmitEndTagEv
libospgrove.so.0:_ZNK6OpenSP15AttElementChunk2idEv
libospgrove.so.0:_ZNK6OpenSP15AttElementChunk5afterEv
libospgrove.so.0:_ZNK6OpenSP15ElementTypeNode11getLocationERNS_8LocationE
libospgrove.so.0:_ZNK6OpenSP15ElementTypeNode13getExclusionsERN14OpenJade_Grove18GroveStringListPtrE
libospgrove.so.0:_ZNK6OpenSP15ElementTypeNode13getInclusionsERN14OpenJade_Grove18GroveStringListPtrE
libospgrove.so.0:_ZNK6OpenSP15ElementTypeNode13getModelGroupERN14OpenJade_Grove7NodePtrE
libospgrove.so.0:_ZNK6OpenSP15ElementTypeNode13getOmitEndTagERb
libospgrove.so.0:_ZNK6OpenSP15ElementTypeNode14getContentTypeERN14OpenJade_Grove4Node11ContentType4EnumE
libospgrove.so.0:_ZNK6OpenSP15ElementTypeNode15getOmitStartTagERb
libospgrove.so.0:_ZNK6OpenSP15ElementTypeNode16getAttributeDefsERN14OpenJade_Grove16NamedNodeListPtrE
libospgrove.so.0:_ZNK6OpenSP15ElementTypeNode4hashEv
libospgrove.so.0:_ZNK6OpenSP15ElementTypeNode4sameERKNS_8BaseNodeE
libospgrove.so.0:_ZNK6OpenSP15ElementTypeNode5getGiERN14OpenJade_Grove11GroveStringE
libospgrove.so.0:_ZNK6OpenSP15ElementTypeNode5same2EPKS0_
libospgrove.so.0:_ZNK6OpenSP15ElementTypeNode9getOriginERN14OpenJade_Grove7NodePtrE
libospgrove.so.0:_ZNK6OpenSP15ForwardingChunk12getFollowingEPKNS_9GroveImplERPKNS_5ChunkERm
libospgrove.so.0:_ZNK6OpenSP15ForwardingChunk15setNodePtrFirstERN14OpenJade_Grove7NodePtrEPKNS_8BaseNodeE
libospgrove.so.0:_ZNK6OpenSP15PcdataTokenNode4hashEv
libospgrove.so.0:_ZNK6OpenSP15PcdataTokenNode4sameERKNS_8BaseNodeE
libospgrove.so.0:_ZNK6OpenSP15PcdataTokenNode5same2EPKS0_
libospgrove.so.0:_ZNK6OpenSP16AttributeDefNode16getDeclValueTypeERN14OpenJade_Grove4Node13DeclValueType4EnumE
libospgrove.so.0:_ZNK6OpenSP16AttributeDefNode19getDefaultValueTypeERN14OpenJade_Grove4Node16DefaultValueType4EnumE
libospgrove.so.0:_ZNK6OpenSP16AttributeDefNode24getCurrentAttributeIndexERl
libospgrove.so.0:_ZNK6OpenSP16AttributeDefNode4hashEv
libospgrove.so.0:_ZNK6OpenSP16AttributeDefNode4sameERKNS_8BaseNodeE
libospgrove.so.0:_ZNK6OpenSP16AttributeDefNode5same2EPKS0_
libospgrove.so.0:_ZNK6OpenSP16AttributeDefNode7getNameERN14OpenJade_Grove11GroveStringE
libospgrove.so.0:_ZNK6OpenSP16AttributeDefNode9getOriginERN14OpenJade_Grove7NodePtrE
libospgrove.so.0:_ZNK6OpenSP16AttributeDefNode9getTokensERN14OpenJade_Grove18GroveStringListPtrE
libospgrove.so.0:_ZNK6OpenSP16DocumentTypeNode12getGoverningERb
libospgrove.so.0:_ZNK6OpenSP16DocumentTypeNode12getNotationsERN14OpenJade_Grove16NamedNodeListPtrE
libospgrove.so.0:_ZNK6OpenSP16DocumentTypeNode15getElementTypesERN14OpenJade_Grove16NamedNodeListPtrE
libospgrove.so.0:_ZNK6OpenSP16DocumentTypeNode16getDefaultEntityERN14OpenJade_Grove7NodePtrE
libospgrove.so.0:_ZNK6OpenSP16DocumentTypeNode16nextChunkSiblingERN14OpenJade_Grove7NodePtrE
libospgrove.so.0:_ZNK6OpenSP16DocumentTypeNode18getGeneralEntitiesERN14OpenJade_Grove16NamedNodeListPtrE
libospgrove.so.0:_ZNK6OpenSP16DocumentTypeNode20getParameterEntitiesERN14OpenJade_Grove16NamedNodeListPtrE
libospgrove.so.0:_ZNK6OpenSP16DocumentTypeNode4sameERKNS_8BaseNodeE
libospgrove.so.0:_ZNK6OpenSP16DocumentTypeNode5same2EPKS0_
libospgrove.so.0:_ZNK6OpenSP16DocumentTypeNode7getNameERN14OpenJade_Grove11GroveStringE
libospgrove.so.0:_ZNK6OpenSP16DocumentTypeNode9getOriginERN14OpenJade_Grove7NodePtrE
libospgrove.so.0:_ZNK6OpenSP16ElementTokenNode17getOccurIndicatorERN14OpenJade_Grove4Node14OccurIndicator4EnumE
libospgrove.so.0:_ZNK6OpenSP16ElementTokenNode4hashEv
libospgrove.so.0:_ZNK6OpenSP16ElementTokenNode4sameERKNS_8BaseNodeE
libospgrove.so.0:_ZNK6OpenSP16ElementTokenNode5getGiERN14OpenJade_Grove11GroveStringE
libospgrove.so.0:_ZNK6OpenSP16ElementTokenNode5same2EPKS0_
libospgrove.so.0:_ZNK6OpenSP16ElementsNodeList5firstERN14OpenJade_Grove7NodePtrE
libospgrove.so.0:_ZNK6OpenSP16ElementsNodeList9chunkRestERN14OpenJade_Grove11NodeListPtrE
libospgrove.so.0:_ZNK6OpenSP16EntitiesNodeList5firstERN14OpenJade_Grove7NodePtrE
libospgrove.so.0:_ZNK6OpenSP16EntitiesNodeList9chunkRestERN14OpenJade_Grove11NodeListPtrE
libospgrove.so.0:_ZNK6OpenSP16SgmlDocumentNode11getElementsERN14OpenJade_Grove16NamedNodeListPtrE
libospgrove.so.0:_ZNK6OpenSP16SgmlDocumentNode11getEntitiesERN14OpenJade_Grove16NamedNodeListPtrE
libospgrove.so.0:_ZNK6OpenSP16SgmlDocumentNode11getMessagesERN14OpenJade_Grove11NodeListPtrE
libospgrove.so.0:_ZNK6OpenSP16SgmlDocumentNode16getSgmlConstantsERN14OpenJade_Grove7NodePtrE
libospgrove.so.0:_ZNK6OpenSP16SgmlDocumentNode18getApplicationInfoERN14OpenJade_Grove11GroveStringE
libospgrove.so.0:_ZNK6OpenSP16SgmlDocumentNode18getDocumentElementERN14OpenJade_Grove7NodePtrE
libospgrove.so.0:_ZNK6OpenSP16SgmlDocumentNode19getGoverningDoctypeERN14OpenJade_Grove7NodePtrE
libospgrove.so.0:_ZNK6OpenSP16SgmlDocumentNode20getDefaultedEntitiesERN14OpenJade_Grove16NamedNodeListPtrE
libospgrove.so.0:_ZNK6OpenSP16SgmlDocumentNode23getDoctypesAndLinktypesERN14OpenJade_Grove16NamedNodeListPtrE
libospgrove.so.0:_ZNK6OpenSP16SgmlDocumentNode5getSdERNS_8ConstPtrINS_2SdEEERNS1_INS_6SyntaxEEES7_
libospgrove.so.0:_ZNK6OpenSP16SgmlDocumentNode9getEpilogERN14OpenJade_Grove11NodeListPtrE
libospgrove.so.0:_ZNK6OpenSP16SgmlDocumentNode9getPrologERN14OpenJade_Grove11NodeListPtrE
libospgrove.so.0:_ZNK6OpenSP17AttributeAsgnNode10firstChildERN14OpenJade_Grove7NodePtrE
libospgrove.so.0:_ZNK6OpenSP17AttributeAsgnNode10getImpliedERb
libospgrove.so.0:_ZNK6OpenSP17AttributeAsgnNode11getTokenSepERj
libospgrove.so.0:_ZNK6OpenSP17AttributeAsgnNode12firstSiblingERN14OpenJade_Grove7NodePtrE
libospgrove.so.0:_ZNK6OpenSP17AttributeAsgnNode13siblingsIndexERm
libospgrove.so.0:_ZNK6OpenSP17AttributeAsgnNode15getAttributeDefERN14OpenJade_Grove7NodePtrE
libospgrove.so.0:_ZNK6OpenSP17AttributeAsgnNode16followSiblingRefEmRN14OpenJade_Grove7NodePtrE
libospgrove.so.0:_ZNK6OpenSP17AttributeAsgnNode16nextChunkSiblingERN14OpenJade_Grove7NodePtrE
libospgrove.so.0:_ZNK6OpenSP17AttributeAsgnNode4hashEv
libospgrove.so.0:_ZNK6OpenSP17AttributeAsgnNode4sameERKNS_8BaseNodeE
libospgrove.so.0:_ZNK6OpenSP17AttributeAsgnNode5same2EPKS0_
libospgrove.so.0:_ZNK6OpenSP17AttributeAsgnNode6tokensERN14OpenJade_Grove11GroveStringE
libospgrove.so.0:_ZNK6OpenSP17AttributeAsgnNode7getNameERN14OpenJade_Grove11GroveStringE
libospgrove.so.0:_ZNK6OpenSP17AttributeAsgnNode8childrenERN14OpenJade_Grove11NodeListPtrE
libospgrove.so.0:_ZNK6OpenSP17AttributeAsgnNode8getValueERN14OpenJade_Grove11NodeListPtrE
libospgrove.so.0:_ZNK6OpenSP17AttributeAsgnNode9getOriginERN14OpenJade_Grove7NodePtrE
libospgrove.so.0:_ZNK6OpenSP17DefaultEntityNode33getOriginToSubnodeRelPropertyNameERN14OpenJade_Grove13ComponentName2IdE
libospgrove.so.0:_ZNK6OpenSP17DefaultEntityNode4sameERKNS_8BaseNodeE
libospgrove.so.0:_ZNK6OpenSP17DefaultEntityNode5same2EPKS0_
libospgrove.so.0:_ZNK6OpenSP17DefaultEntityNode9getOriginERN14OpenJade_Grove7NodePtrE
libospgrove.so.0:_ZNK6OpenSP17ExternalDataChunk15setNodePtrFirstERN14OpenJade_Grove7NodePtrEPKNS_8BaseNodeE
libospgrove.so.0:_ZNK6OpenSP17NotationsNodeList5firstERN14OpenJade_Grove7NodePtrE
libospgrove.so.0:_ZNK6OpenSP17NotationsNodeList9chunkRestERN14OpenJade_Grove11NodeListPtrE
libospgrove.so.0:_ZNK6OpenSP17SgmlConstantsNode4sameERKNS_8BaseNodeE
libospgrove.so.0:_ZNK6OpenSP17SgmlConstantsNode5same2EPKS0_
libospgrove.so.0:_ZNK6OpenSP17SgmlConstantsNode9getOriginERN14OpenJade_Grove7NodePtrE
libospgrove.so.0:_ZNK6OpenSP17SgmlDocumentChunk15setNodePtrFirstERN14OpenJade_Grove7NodePtrEPKNS_8BaseNodeE
libospgrove.so.0:_ZNK6OpenSP18AttributeDefOrigin20makeAttributeDefNodeEPKNS_9GroveImplERN14OpenJade_Grove7NodePtrERKNS_6StringIjEE
libospgrove.so.0:_ZNK6OpenSP18AttributeDefOrigin22makeAttributeValueNodeEPKNS_9GroveImplERN14OpenJade_Grove7NodePtrEPKNS_14AttributeValueE
libospgrove.so.0:_ZNK6OpenSP18AttributeDefOrigin26makeAttributeValueNodeListEPKNS_9GroveImplERN14OpenJade_Grove11NodeListPtrEPKNS_14AttributeValueE
libospgrove.so.0:_ZNK6OpenSP19DocEntitiesNodeList5firstERN14OpenJade_Grove7NodePtrE
libospgrove.so.0:_ZNK6OpenSP19DocEntitiesNodeList9chunkRestERN14OpenJade_Grove11NodeListPtrE
libospgrove.so.0:_ZNK6OpenSP20ContentTokenNodeBase11getLocationERNS_8LocationE
libospgrove.so.0:_ZNK6OpenSP20ContentTokenNodeBase9getOriginERN14OpenJade_Grove7NodePtrE
libospgrove.so.0:_ZNK6OpenSP20ContentTokenNodeList5firstERN14OpenJade_Grove7NodePtrE
libospgrove.so.0:_ZNK6OpenSP20ContentTokenNodeList9chunkRestERN14OpenJade_Grove11NodeListPtrE
libospgrove.so.0:_ZNK6OpenSP20ElementTypesNodeList5firstERN14OpenJade_Grove7NodePtrE
libospgrove.so.0:_ZNK6OpenSP20ElementTypesNodeList9chunkRestERN14OpenJade_Grove11NodeListPtrE
libospgrove.so.0:_ZNK6OpenSP20EntityExternalIdNode10externalIdEv
libospgrove.so.0:_ZNK6OpenSP20EntityExternalIdNode4hashEv
libospgrove.so.0:_ZNK6OpenSP20EntityExternalIdNode9getOriginERN14OpenJade_Grove7NodePtrE
libospgrove.so.0:_ZNK6OpenSP20IncludedElementChunk8includedEv
libospgrove.so.0:_ZNK6OpenSP21AttributeDefsNodeList5firstERN14OpenJade_Grove7NodePtrE
libospgrove.so.0:_ZNK6OpenSP21AttributeDefsNodeList6inListEm
libospgrove.so.0:_ZNK6OpenSP21AttributeDefsNodeList9chunkRestERN14OpenJade_Grove11NodeListPtrE
libospgrove.so.0:_ZNK6OpenSP21ElementsNamedNodeList10namedNodeUERKNS_6StringIjEERN14OpenJade_Grove7NodePtrE
libospgrove.so.0:_ZNK6OpenSP21ElementsNamedNodeList8nodeListEv
libospgrove.so.0:_ZNK6OpenSP21EntityAttributeOrigin10attDefListEv
libospgrove.so.0:_ZNK6OpenSP21EntityAttributeOrigin14attributeValueEmRKNS_9GroveImplE
libospgrove.so.0:_ZNK6OpenSP21EntityAttributeOrigin14makeOriginNodeEPKNS_9GroveImplEm
libospgrove.so.0:_ZNK6OpenSP21EntityAttributeOrigin17attributeOriginIdEv
libospgrove.so.0:_ZNK6OpenSP21EntityAttributeOrigin20makeAttributeDefNodeEPKNS_9GroveImplERN14OpenJade_Grove7NodePtrEm
libospgrove.so.0:_ZNK6OpenSP21EntityAttributeOrigin21makeAttributeAsgnNodeEPKNS_9GroveImplEm
libospgrove.so.0:_ZNK6OpenSP21EntityAttributeOrigin25setNodePtrAttributeOriginERN14OpenJade_Grove7NodePtrEPKNS_8BaseNodeE
libospgrove.so.0:_ZNK6OpenSP21EntityAttributeOrigin27makeAttributeValueTokenNodeEPKNS_9GroveImplEPKNS_23TokenizedAttributeValueEmm
libospgrove.so.0:_ZNK6OpenSP21EntityAttributeOrigin27makeCdataAttributeValueNodeEPKNS_9GroveImplEPKNS_14AttributeValueEmRKNS_8TextIterEm
libospgrove.so.0:_ZNK6OpenSP22ElementAttributeOrigin10attDefListEv
libospgrove.so.0:_ZNK6OpenSP22ElementAttributeOrigin14attributeValueEmRKNS_9GroveImplE
libospgrove.so.0:_ZNK6OpenSP22ElementAttributeOrigin14makeOriginNodeEPKNS_9GroveImplEm
libospgrove.so.0:_ZNK6OpenSP22ElementAttributeOrigin17attributeOriginIdEv
libospgrove.so.0:_ZNK6OpenSP22ElementAttributeOrigin20makeAttributeDefNodeEPKNS_9GroveImplERN14OpenJade_Grove7NodePtrEm
libospgrove.so.0:_ZNK6OpenSP22ElementAttributeOrigin21makeAttributeAsgnNodeEPKNS_9GroveImplEm
libospgrove.so.0:_ZNK6OpenSP22ElementAttributeOrigin25setNodePtrAttributeOriginERN14OpenJade_Grove7NodePtrEPKNS_8BaseNodeE
libospgrove.so.0:_ZNK6OpenSP22ElementAttributeOrigin27makeAttributeValueTokenNodeEPKNS_9GroveImplEPKNS_23TokenizedAttributeValueEmm
libospgrove.so.0:_ZNK6OpenSP22ElementAttributeOrigin27makeCdataAttributeValueNodeEPKNS_9GroveImplEPKNS_14AttributeValueEmRKNS_8TextIterEm
libospgrove.so.0:_ZNK6OpenSP22NotationExternalIdNode10externalIdEv
libospgrove.so.0:_ZNK6OpenSP22NotationExternalIdNode4hashEv
libospgrove.so.0:_ZNK6OpenSP22NotationExternalIdNode9getOriginERN14OpenJade_Grove7NodePtrE
libospgrove.so.0:_ZNK6OpenSP22NotationsNamedNodeList10namedNodeUERKNS_6StringIjEERN14OpenJade_Grove7NodePtrE
libospgrove.so.0:_ZNK6OpenSP22NotationsNamedNodeList8nodeListEv
libospgrove.so.0:_ZNK6OpenSP23AttributeValueTokenNode11getLocationERNS_8LocationE
libospgrove.so.0:_ZNK6OpenSP23AttributeValueTokenNode11getNotationERN14OpenJade_Grove7NodePtrE
libospgrove.so.0:_ZNK6OpenSP23AttributeValueTokenNode11getReferentERN14OpenJade_Grove7NodePtrE
libospgrove.so.0:_ZNK6OpenSP23AttributeValueTokenNode12firstSiblingERN14OpenJade_Grove7NodePtrE
libospgrove.so.0:_ZNK6OpenSP23AttributeValueTokenNode13siblingsIndexERm
libospgrove.so.0:_ZNK6OpenSP23AttributeValueTokenNode16followSiblingRefEmRN14OpenJade_Grove7NodePtrE
libospgrove.so.0:_ZNK6OpenSP23AttributeValueTokenNode16nextChunkSiblingERN14OpenJade_Grove7NodePtrE
libospgrove.so.0:_ZNK6OpenSP23AttributeValueTokenNode4hashEv
libospgrove.so.0:_ZNK6OpenSP23AttributeValueTokenNode4sameERKNS_8BaseNodeE
libospgrove.so.0:_ZNK6OpenSP23AttributeValueTokenNode5same2EPKS0_
libospgrove.so.0:_ZNK6OpenSP23AttributeValueTokenNode8getTokenERN14OpenJade_Grove11GroveStringE
libospgrove.so.0:_ZNK6OpenSP23AttributeValueTokenNode9getEntityERN14OpenJade_Grove7NodePtrE
libospgrove.so.0:_ZNK6OpenSP23AttributeValueTokenNode9getParentERN14OpenJade_Grove7NodePtrE
libospgrove.so.0:_ZNK6OpenSP23AttributesNamedNodeList10namedNodeUERKNS_6StringIjEERN14OpenJade_Grove7NodePtrE
libospgrove.so.0:_ZNK6OpenSP23AttributesNamedNodeList8nodeListEv
libospgrove.so.0:_ZNK6OpenSP23CdataAttributeValueNode11getLocationERNS_8LocationE
libospgrove.so.0:_ZNK6OpenSP23CdataAttributeValueNode11nextSiblingERN14OpenJade_Grove7NodePtrE
libospgrove.so.0:_ZNK6OpenSP23CdataAttributeValueNode12firstSiblingERN14OpenJade_Grove7NodePtrE
libospgrove.so.0:_ZNK6OpenSP23CdataAttributeValueNode13chunkContainsERKN14OpenJade_Grove4NodeE
libospgrove.so.0:_ZNK6OpenSP23CdataAttributeValueNode13getEntityNameERN14OpenJade_Grove11GroveStringE
libospgrove.so.0:_ZNK6OpenSP23CdataAttributeValueNode13getSystemDataERN14OpenJade_Grove11GroveStringE
libospgrove.so.0:_ZNK6OpenSP23CdataAttributeValueNode13siblingsIndexERm
libospgrove.so.0:_ZNK6OpenSP23CdataAttributeValueNode16nextChunkSiblingERN14OpenJade_Grove7NodePtrE
libospgrove.so.0:_ZNK6OpenSP23CdataAttributeValueNode4hashEv
libospgrove.so.0:_ZNK6OpenSP23CdataAttributeValueNode4sameERKNS_8BaseNodeE
libospgrove.so.0:_ZNK6OpenSP23CdataAttributeValueNode5same2EPKS0_
libospgrove.so.0:_ZNK6OpenSP23CdataAttributeValueNode7inChunkEPKS0_
libospgrove.so.0:_ZNK6OpenSP23CdataAttributeValueNode8classDefEv
libospgrove.so.0:_ZNK6OpenSP23CdataAttributeValueNode9charChunkERKN14OpenJade_Grove11SdataMapperERNS1_11GroveStringE
libospgrove.so.0:_ZNK6OpenSP23CdataAttributeValueNode9getEntityERN14OpenJade_Grove7NodePtrE
libospgrove.so.0:_ZNK6OpenSP23CdataAttributeValueNode9getParentERN14OpenJade_Grove7NodePtrE
libospgrove.so.0:_ZNK6OpenSP23IncludedAttElementChunk8includedEv
libospgrove.so.0:_ZNK6OpenSP24DocEntitiesNamedNodeList10namedNodeUERKNS_6StringIjEERN14OpenJade_Grove7NodePtrE
libospgrove.so.0:_ZNK6OpenSP24DocEntitiesNamedNodeList8nodeListEv
libospgrove.so.0:_ZNK6OpenSP24NotationAttributeDefNode11getLocationERNS_8LocationE
libospgrove.so.0:_ZNK6OpenSP24NotationAttributeDefNode15getCurrentGroupERN14OpenJade_Grove11NodeListPtrE
libospgrove.so.0:_ZNK6OpenSP25ElementTypesNamedNodeList10namedNodeUERKNS_6StringIjEERN14OpenJade_Grove7NodePtrE
libospgrove.so.0:_ZNK6OpenSP25ElementTypesNamedNodeList8nodeListEv
libospgrove.so.0:_ZNK6OpenSP26AttributeDefsNamedNodeList10namedNodeUERKNS_6StringIjEERN14OpenJade_Grove7NodePtrE
libospgrove.so.0:_ZNK6OpenSP26AttributeDefsNamedNodeList8nodeListEv
libospgrove.so.0:_ZNK6OpenSP26NotationAttributeDefOrigin10attDefListEv
libospgrove.so.0:_ZNK6OpenSP26NotationAttributeDefOrigin14makeOriginNodeEPKNS_9GroveImplEm
libospgrove.so.0:_ZNK6OpenSP26NotationAttributeDefOrigin17attributeOriginIdEv
libospgrove.so.0:_ZNK6OpenSP26NotationAttributeDefOrigin20makeAttributeDefListEPKNS_9GroveImplERN14OpenJade_Grove11NodeListPtrEm
libospgrove.so.0:_ZNK6OpenSP26NotationAttributeDefOrigin20makeAttributeDefNodeEPKNS_9GroveImplERN14OpenJade_Grove7NodePtrEm
libospgrove.so.0:_ZNK6OpenSP26NotationAttributeDefOrigin27makeAttributeValueTokenNodeEPKNS_9GroveImplEPKNS_23TokenizedAttributeValueEmm
libospgrove.so.0:_ZNK6OpenSP26NotationAttributeDefOrigin27makeCdataAttributeValueNodeEPKNS_9GroveImplEPKNS_14AttributeValueEmRKNS_8TextIterEm
libospgrove.so.0:_ZNK6OpenSP27ElementTypeAttributeDefNode11getLocationERNS_8LocationE
libospgrove.so.0:_ZNK6OpenSP27ElementTypeAttributeDefNode15getCurrentGroupERN14OpenJade_Grove11NodeListPtrE
libospgrove.so.0:_ZNK6OpenSP27ElementTypeAttributeDefNode15getDefaultValueERN14OpenJade_Grove11NodeListPtrE
libospgrove.so.0:_ZNK6OpenSP28GeneralEntitiesNamedNodeList10namedNodeUERKNS_6StringIjEERN14OpenJade_Grove7NodePtrE
libospgrove.so.0:_ZNK6OpenSP28GeneralEntitiesNamedNodeList8nodeListEv
libospgrove.so.0:_ZNK6OpenSP29ElementTypeAttributeDefOrigin10attDefListEv
libospgrove.so.0:_ZNK6OpenSP29ElementTypeAttributeDefOrigin14makeOriginNodeEPKNS_9GroveImplEm
libospgrove.so.0:_ZNK6OpenSP29ElementTypeAttributeDefOrigin17attributeOriginIdEv
libospgrove.so.0:_ZNK6OpenSP29ElementTypeAttributeDefOrigin20makeAttributeDefListEPKNS_9GroveImplERN14OpenJade_Grove11NodeListPtrEm
libospgrove.so.0:_ZNK6OpenSP29ElementTypeAttributeDefOrigin20makeAttributeDefNodeEPKNS_9GroveImplERN14OpenJade_Grove7NodePtrEm
libospgrove.so.0:_ZNK6OpenSP29ElementTypeAttributeDefOrigin27makeAttributeValueTokenNodeEPKNS_9GroveImplEPKNS_23TokenizedAttributeValueEmm
libospgrove.so.0:_ZNK6OpenSP29ElementTypeAttributeDefOrigin27makeCdataAttributeValueNodeEPKNS_9GroveImplEPKNS_14AttributeValueEmRKNS_8TextIterEm
libospgrove.so.0:_ZNK6OpenSP30DefaultedEntitiesNamedNodeList10namedNodeUERKNS_6StringIjEERN14OpenJade_Grove7NodePtrE
libospgrove.so.0:_ZNK6OpenSP30DefaultedEntitiesNamedNodeList8nodeListEv
libospgrove.so.0:_ZNK6OpenSP30ParameterEntitiesNamedNodeList10namedNodeUERKNS_6StringIjEERN14OpenJade_Grove7NodePtrE
libospgrove.so.0:_ZNK6OpenSP30ParameterEntitiesNamedNodeList8nodeListEv
libospgrove.so.0:_ZNK6OpenSP33DoctypesAndLinktypesNamedNodeList10namedNodeUERKNS_6StringIjEERN14OpenJade_Grove7NodePtrE
libospgrove.so.0:_ZNK6OpenSP33DoctypesAndLinktypesNamedNodeList8nodeListEv
libospgrove.so.0:_ZNK6OpenSP44ElementTypeCurrentGroupAttributeDefsNodeList4nextERNS_19ConstNamedTableIterINS_11ElementTypeEEERPKS2_Rmb
libospgrove.so.0:_ZNK6OpenSP44ElementTypeCurrentGroupAttributeDefsNodeList5firstERN14OpenJade_Grove7NodePtrE
libospgrove.so.0:_ZNK6OpenSP44ElementTypeCurrentGroupAttributeDefsNodeList9chunkRestERN14OpenJade_Grove11NodeListPtrE
libospgrove.so.0:_ZNK6OpenSP5Chunk12getFollowingEPKNS_9GroveImplERPKS0_Rm
libospgrove.so.0:_ZNK6OpenSP5Chunk12getLocOriginERPKNS_6OriginE
libospgrove.so.0:_ZNK6OpenSP5Chunk15getFirstSiblingEPKNS_9GroveImplERPKS0_
libospgrove.so.0:_ZNK6OpenSP5Chunk15setNodePtrFirstERN14OpenJade_Grove7NodePtrEPKNS_11ElementNodeE
libospgrove.so.0:_ZNK6OpenSP5Chunk15setNodePtrFirstERN14OpenJade_Grove7NodePtrEPKNS_8DataNodeE
libospgrove.so.0:_ZNK6OpenSP5Chunk2idEv
libospgrove.so.0:_ZNK6OpenSP6PiNode13getSystemDataERN14OpenJade_Grove11GroveStringE
libospgrove.so.0:_ZNK6OpenSP7PiChunk15setNodePtrFirstERN14OpenJade_Grove7NodePtrEPKNS_8BaseNodeE
libospgrove.so.0:_ZNK6OpenSP8BaseNode10groveIndexEv
libospgrove.so.0:_ZNK6OpenSP8BaseNode11getLocationERNS_8LocationE
libospgrove.so.0:_ZNK6OpenSP8BaseNode11nextSiblingERN14OpenJade_Grove7NodePtrE
libospgrove.so.0:_ZNK6OpenSP8BaseNode12getGroveRootERN14OpenJade_Grove7NodePtrE
libospgrove.so.0:_ZNK6OpenSP8BaseNode13chunkContainsERKN14OpenJade_Grove4NodeE
libospgrove.so.0:_ZNK6OpenSP8BaseNode14queryInterfaceEPKcRPKv
libospgrove.so.0:_ZNK6OpenSP8BaseNode5same2EPKNS_10EntityNodeE
libospgrove.so.0:_ZNK6OpenSP8BaseNode5same2EPKNS_11MessageNodeE
libospgrove.so.0:_ZNK6OpenSP8BaseNode5same2EPKNS_12NotationNodeE
libospgrove.so.0:_ZNK6OpenSP8BaseNode5same2EPKNS_14ExternalIdNodeE
libospgrove.so.0:_ZNK6OpenSP8BaseNode5same2EPKNS_14ModelGroupNodeE
libospgrove.so.0:_ZNK6OpenSP8BaseNode5same2EPKNS_15ElementTypeNodeE
libospgrove.so.0:_ZNK6OpenSP8BaseNode5same2EPKNS_15PcdataTokenNodeE
libospgrove.so.0:_ZNK6OpenSP8BaseNode5same2EPKNS_16AttributeDefNodeE
libospgrove.so.0:_ZNK6OpenSP8BaseNode5same2EPKNS_16DocumentTypeNodeE
libospgrove.so.0:_ZNK6OpenSP8BaseNode5same2EPKNS_16ElementTokenNodeE
libospgrove.so.0:_ZNK6OpenSP8BaseNode5same2EPKNS_17AttributeAsgnNodeE
libospgrove.so.0:_ZNK6OpenSP8BaseNode5same2EPKNS_17DefaultEntityNodeE
libospgrove.so.0:_ZNK6OpenSP8BaseNode5same2EPKNS_17SgmlConstantsNodeE
libospgrove.so.0:_ZNK6OpenSP8BaseNode5same2EPKNS_23AttributeValueTokenNodeE
libospgrove.so.0:_ZNK6OpenSP8BaseNode5same2EPKNS_23CdataAttributeValueNodeE
libospgrove.so.0:_ZNK6OpenSP8BaseNode5same2EPKNS_8DataNodeE
libospgrove.so.0:_ZNK6OpenSP8BaseNode5same2EPKNS_9ChunkNodeE
libospgrove.so.0:_ZNK6OpenSP8BaseNode6followERN14OpenJade_Grove11NodeListPtrE
libospgrove.so.0:_ZNK6OpenSP8BaseNode7inChunkEPKNS_23CdataAttributeValueNodeE
libospgrove.so.0:_ZNK6OpenSP8BaseNode7inChunkEPKNS_8DataNodeE
libospgrove.so.0:_ZNK6OpenSP8BaseNode8childrenERN14OpenJade_Grove11NodeListPtrE
libospgrove.so.0:_ZNK6OpenSP8BaseNode9getOriginERN14OpenJade_Grove7NodePtrE
libospgrove.so.0:_ZNK6OpenSP8BaseNodeeqERKN14OpenJade_Grove4NodeE
libospgrove.so.0:_ZNK6OpenSP8DataNode10getNonSgmlERm
libospgrove.so.0:_ZNK6OpenSP8DataNode11getLocationERNS_8LocationE
libospgrove.so.0:_ZNK6OpenSP8DataNode11nextSiblingERN14OpenJade_Grove7NodePtrE
libospgrove.so.0:_ZNK6OpenSP8DataNode13chunkContainsERKN14OpenJade_Grove4NodeE
libospgrove.so.0:_ZNK6OpenSP8DataNode13siblingsIndexERm
libospgrove.so.0:_ZNK6OpenSP8DataNode14nextChunkAfterERN14OpenJade_Grove7NodePtrE
libospgrove.so.0:_ZNK6OpenSP8DataNode16followSiblingRefEmRN14OpenJade_Grove7NodePtrE
libospgrove.so.0:_ZNK6OpenSP8DataNode4hashEv
libospgrove.so.0:_ZNK6OpenSP8DataNode4sameERKNS_8BaseNodeE
libospgrove.so.0:_ZNK6OpenSP8DataNode5same2EPKS0_
libospgrove.so.0:_ZNK6OpenSP8DataNode7inChunkEPKS0_
libospgrove.so.0:_ZNK6OpenSP8DataNode9charChunkERKN14OpenJade_Grove11SdataMapperERNS1_11GroveStringE
libospgrove.so.0:_ZNK6OpenSP9ChunkNode11getLocationERNS_8LocationE
libospgrove.so.0:_ZNK6OpenSP9ChunkNode11getTreeRootERN14OpenJade_Grove7NodePtrE
libospgrove.so.0:_ZNK6OpenSP9ChunkNode12firstSiblingERN14OpenJade_Grove7NodePtrE
libospgrove.so.0:_ZNK6OpenSP9ChunkNode13siblingsIndexERm
libospgrove.so.0:_ZNK6OpenSP9ChunkNode14nextChunkAfterERN14OpenJade_Grove7NodePtrE
libospgrove.so.0:_ZNK6OpenSP9ChunkNode16followSiblingRefEmRN14OpenJade_Grove7NodePtrE
libospgrove.so.0:_ZNK6OpenSP9ChunkNode16nextChunkSiblingERN14OpenJade_Grove7NodePtrE
libospgrove.so.0:_ZNK6OpenSP9ChunkNode33getOriginToSubnodeRelPropertyNameERN14OpenJade_Grove13ComponentName2IdE
libospgrove.so.0:_ZNK6OpenSP9ChunkNode4hashEv
libospgrove.so.0:_ZNK6OpenSP9ChunkNode4sameERKNS_8BaseNodeE
libospgrove.so.0:_ZNK6OpenSP9ChunkNode5same2EPKS0_
libospgrove.so.0:_ZNK6OpenSP9ChunkNode9getOriginERN14OpenJade_Grove7NodePtrE
libospgrove.so.0:_ZNK6OpenSP9ChunkNode9getParentERN14OpenJade_Grove7NodePtrE
libospgrove.so.0:_ZNK6OpenSP9DataChunk12getFollowingEPKNS_9GroveImplERPKNS_5ChunkERm
libospgrove.so.0:_ZNK6OpenSP9DataChunk15setNodePtrFirstERN14OpenJade_Grove7NodePtrEPKNS_11ElementNodeE
libospgrove.so.0:_ZNK6OpenSP9DataChunk15setNodePtrFirstERN14OpenJade_Grove7NodePtrEPKNS_8BaseNodeE
libospgrove.so.0:_ZNK6OpenSP9DataChunk15setNodePtrFirstERN14OpenJade_Grove7NodePtrEPKNS_8DataNodeE
libospgrove.so.0:_ZNK6OpenSP9GroveImpl10getAppinfoERPKNS_6StringIjEE
libospgrove.so.0:_ZNK6OpenSP9GroveImpl15proxifyLocationERKNS_8LocationERS1_
libospgrove.so.0:_ZNK6OpenSP9GroveImpl18maybeMoreSiblings1EPKNS_11ParentChunkE
libospgrove.so.0:_ZNK6OpenSP9GroveImpl19defaultedEntityIterEv
libospgrove.so.0:_ZNK6OpenSP9GroveImpl21lookupDefaultedEntityERKNS_6StringIjEE
libospgrove.so.0:_ZNK6OpenSP9GroveImpl5getSdERNS_8ConstPtrINS_2SdEEERNS1_INS_6SyntaxEEES7_
libospgrove.so.0:_ZNK6OpenSP9SdataNode13getSystemDataERN14OpenJade_Grove11GroveStringE
libospgrove.so.0:_ZNK6OpenSP9SdataNode9charChunkERKN14OpenJade_Grove11SdataMapperERNS1_11GroveStringE
libospgrove.so.0:_ZThn40_NK6OpenSP16SgmlDocumentNode5getSdERNS_8ConstPtrINS_2SdEEERNS1_INS_6SyntaxEEES7_
libospgrove.so.0:_ZThn8_N6OpenSP8GroveApp15dispatchMessageERKNS_7MessageE
libospgrove.so.0:_ZThn8_NK6OpenSP11MessageNode11getLocationERNS_8LocationE
libospgrove.so.0:_ZThn8_NK6OpenSP12NotationNode11getLocationERNS_8LocationE
libospgrove.so.0:_ZThn8_NK6OpenSP14EntityNodeBase11getLocationERNS_8LocationE
libospgrove.so.0:_ZThn8_NK6OpenSP15ElementTypeNode11getLocationERNS_8LocationE
libospgrove.so.0:_ZThn8_NK6OpenSP20ContentTokenNodeBase11getLocationERNS_8LocationE
libospgrove.so.0:_ZThn8_NK6OpenSP23AttributeValueTokenNode11getLocationERNS_8LocationE
libospgrove.so.0:_ZThn8_NK6OpenSP23CdataAttributeValueNode11getLocationERNS_8LocationE
libospgrove.so.0:_ZThn8_NK6OpenSP24NotationAttributeDefNode11getLocationERNS_8LocationE
libospgrove.so.0:_ZThn8_NK6OpenSP27ElementTypeAttributeDefNode11getLocationERNS_8LocationE
libospgrove.so.0:_ZThn8_NK6OpenSP8BaseNode11getLocationERNS_8LocationE
libospgrove.so.0:_ZThn8_NK6OpenSP8DataNode11getLocationERNS_8LocationE
libospgrove.so.0:_ZThn8_NK6OpenSP9ChunkNode11getLocationERNS_8LocationE
libospgrove.so.0:_ZTv0_n24_NK6OpenSP21EntityAttributeOrigin10attDefListEv
libospgrove.so.0:_ZTv0_n24_NK6OpenSP22ElementAttributeOrigin10attDefListEv
libospgrove.so.0:_ZTv0_n24_NK6OpenSP26NotationAttributeDefOrigin10attDefListEv
libospgrove.so.0:_ZTv0_n24_NK6OpenSP29ElementTypeAttributeDefOrigin10attDefListEv
libospgrove.so.0:_ZTv0_n32_NK6OpenSP21EntityAttributeOrigin14attributeValueEmRKNS_9GroveImplE
libospgrove.so.0:_ZTv0_n32_NK6OpenSP21EntityAttributeOrigin27makeCdataAttributeValueNodeEPKNS_9GroveImplEPKNS_14AttributeValueEmRKNS_8TextIterEm
libospgrove.so.0:_ZTv0_n32_NK6OpenSP22ElementAttributeOrigin14attributeValueEmRKNS_9GroveImplE
libospgrove.so.0:_ZTv0_n32_NK6OpenSP22ElementAttributeOrigin27makeCdataAttributeValueNodeEPKNS_9GroveImplEPKNS_14AttributeValueEmRKNS_8TextIterEm
libospgrove.so.0:_ZTv0_n32_NK6OpenSP26NotationAttributeDefOrigin27makeCdataAttributeValueNodeEPKNS_9GroveImplEPKNS_14AttributeValueEmRKNS_8TextIterEm
libospgrove.so.0:_ZTv0_n32_NK6OpenSP29ElementTypeAttributeDefOrigin27makeCdataAttributeValueNodeEPKNS_9GroveImplEPKNS_14AttributeValueEmRKNS_8TextIterEm
libospgrove.so.0:_ZTv0_n40_NK6OpenSP21EntityAttributeOrigin25setNodePtrAttributeOriginERN14OpenJade_Grove7NodePtrEPKNS_8BaseNodeE
libospgrove.so.0:_ZTv0_n40_NK6OpenSP21EntityAttributeOrigin27makeAttributeValueTokenNodeEPKNS_9GroveImplEPKNS_23TokenizedAttributeValueEmm
libospgrove.so.0:_ZTv0_n40_NK6OpenSP22ElementAttributeOrigin25setNodePtrAttributeOriginERN14OpenJade_Grove7NodePtrEPKNS_8BaseNodeE
libospgrove.so.0:_ZTv0_n40_NK6OpenSP22ElementAttributeOrigin27makeAttributeValueTokenNodeEPKNS_9GroveImplEPKNS_23TokenizedAttributeValueEmm
libospgrove.so.0:_ZTv0_n40_NK6OpenSP26NotationAttributeDefOrigin27makeAttributeValueTokenNodeEPKNS_9GroveImplEPKNS_23TokenizedAttributeValueEmm
libospgrove.so.0:_ZTv0_n40_NK6OpenSP29ElementTypeAttributeDefOrigin27makeAttributeValueTokenNodeEPKNS_9GroveImplEPKNS_23TokenizedAttributeValueEmm
libospgrove.so.0:_ZTv0_n48_NK6OpenSP21EntityAttributeOrigin14makeOriginNodeEPKNS_9GroveImplEm
libospgrove.so.0:_ZTv0_n48_NK6OpenSP21EntityAttributeOrigin21makeAttributeAsgnNodeEPKNS_9GroveImplEm
libospgrove.so.0:_ZTv0_n48_NK6OpenSP22ElementAttributeOrigin14makeOriginNodeEPKNS_9GroveImplEm
libospgrove.so.0:_ZTv0_n48_NK6OpenSP22ElementAttributeOrigin21makeAttributeAsgnNodeEPKNS_9GroveImplEm
libospgrove.so.0:_ZTv0_n48_NK6OpenSP26NotationAttributeDefOrigin14makeOriginNodeEPKNS_9GroveImplEm
libospgrove.so.0:_ZTv0_n48_NK6OpenSP29ElementTypeAttributeDefOrigin14makeOriginNodeEPKNS_9GroveImplEm
libospgrove.so.0:_ZTv0_n72_NK6OpenSP21EntityAttributeOrigin20makeAttributeDefNodeEPKNS_9GroveImplERN14OpenJade_Grove7NodePtrEm
libospgrove.so.0:_ZTv0_n72_NK6OpenSP22ElementAttributeOrigin20makeAttributeDefNodeEPKNS_9GroveImplERN14OpenJade_Grove7NodePtrEm
libospgrove.so.0:_ZTv0_n72_NK6OpenSP26NotationAttributeDefOrigin20makeAttributeDefNodeEPKNS_9GroveImplERN14OpenJade_Grove7NodePtrEm
libospgrove.so.0:_ZTv0_n72_NK6OpenSP29ElementTypeAttributeDefOrigin20makeAttributeDefNodeEPKNS_9GroveImplERN14OpenJade_Grove7NodePtrEm
libospgrove.so.0:_ZTv0_n80_NK6OpenSP26NotationAttributeDefOrigin20makeAttributeDefListEPKNS_9GroveImplERN14OpenJade_Grove11NodeListPtrEm
libospgrove.so.0:_ZTv0_n80_NK6OpenSP29ElementTypeAttributeDefOrigin20makeAttributeDefListEPKNS_9GroveImplERN14OpenJade_Grove11NodeListPtrEm
libospgrove.so.0:_ZTv0_n88_NK6OpenSP21EntityAttributeOrigin17attributeOriginIdEv
libospgrove.so.0:_ZTv0_n88_NK6OpenSP22ElementAttributeOrigin17attributeOriginIdEv
libospgrove.so.0:_ZTv0_n88_NK6OpenSP26NotationAttributeDefOrigin17attributeOriginIdEv
libospgrove.so.0:_ZTv0_n88_NK6OpenSP29ElementTypeAttributeDefOrigin17attributeOriginIdEv
libostyle.so.0:_ZN14OpenJade_DSSSL10AddressObj9asAddressEv
libostyle.so.0:_ZN14OpenJade_DSSSL10AddressObjC1ENS_10FOTBuilder7Address4TypeERKN14OpenJade_Grove7NodePtrERKN6OpenSP6StringIjEESC_SC_
libostyle.so.0:_ZN14OpenJade_DSSSL10AddressObjC2ENS_10FOTBuilder7Address4TypeERKN14OpenJade_Grove7NodePtrERKN6OpenSP6StringIjEESC_SC_
libostyle.so.0:_ZN14OpenJade_DSSSL10AppendInsnC1ERKN6OpenSP8LocationENS1_8ConstPtrINS_4InsnEEE
libostyle.so.0:_ZN14OpenJade_DSSSL10AppendInsnC2ERKN6OpenSP8LocationENS1_8ConstPtrINS_4InsnEEE
libostyle.so.0:_ZN14OpenJade_DSSSL10BoxArgInsnC1EiN6OpenSP8ConstPtrINS_4InsnEEE
libostyle.so.0:_ZN14OpenJade_DSSSL10BoxArgInsnC2EiN6OpenSP8ConstPtrINS_4InsnEEE
libostyle.so.0:_ZN14OpenJade_DSSSL10BoxFlowObj12processInnerERNS_14ProcessContextE
libostyle.so.0:_ZN14OpenJade_DSSSL10BoxFlowObj16setNonInheritedCEPKNS_10IdentifierEPNS_5ELObjERKN6OpenSP8LocationERNS_11InterpreterE
libostyle.so.0:_ZN14OpenJade_DSSSL10BoxFlowObjC1ERKS0_
libostyle.so.0:_ZN14OpenJade_DSSSL10BoxFlowObjC1Ev
libostyle.so.0:_ZN14OpenJade_DSSSL10BoxFlowObjC2ERKS0_
libostyle.so.0:_ZN14OpenJade_DSSSL10BoxFlowObjC2Ev
libostyle.so.0:_ZN14OpenJade_DSSSL10ClosureObj10setArgToCCERNS_2VME
libostyle.so.0:_ZN14OpenJade_DSSSL10ClosureObj4callERNS_2VMERKN6OpenSP8LocationEPKNS_4InsnE
libostyle.so.0:_ZN14OpenJade_DSSSL10ClosureObj8tailCallERNS_2VMERKN6OpenSP8LocationEi
libostyle.so.0:_ZN14OpenJade_DSSSL10ClosureObjC1EPKNS_9SignatureEN6OpenSP8ConstPtrINS_4InsnEEEPPNS_5ELObjE
libostyle.so.0:_ZN14OpenJade_DSSSL10ClosureObjC2EPKNS_9SignatureEN6OpenSP8ConstPtrINS_4InsnEEEPPNS_5ELObjE
libostyle.so.0:_ZN14OpenJade_DSSSL10Expression13markBoundVarsERNS_12BoundVarListEb
libostyle.so.0:_ZN14OpenJade_DSSSL10Expression15compilePushVarsERNS_11InterpreterERKNS_11EnvironmentEiRKNS_12BoundVarListEmRKN6OpenSP8ConstPtrINS_4InsnEEE
libostyle.so.0:_ZN14OpenJade_DSSSL10Expression8optimizeERNS_11InterpreterERKNS_11EnvironmentERN6OpenSP5OwnerIS0_EE
libostyle.so.0:_ZN14OpenJade_DSSSL10ExpressionC1ERKN6OpenSP8LocationE
libostyle.so.0:_ZN14OpenJade_DSSSL10ExpressionC2ERKN6OpenSP8LocationE
libostyle.so.0:_ZN14OpenJade_DSSSL10FOTBuilder10DisplayNICC1Ev
libostyle.so.0:_ZN14OpenJade_DSSSL10FOTBuilder10DisplayNICC2Ev
libostyle.so.0:_ZN14OpenJade_DSSSL10FOTBuilder10charactersEPKjm
libostyle.so.0:_ZN14OpenJade_DSSSL10FOTBuilder10endRadicalEv
libostyle.so.0:_ZN14OpenJade_DSSSL10FOTBuilder10pageNumberEv
libostyle.so.0:_ZN14OpenJade_DSSSL10FOTBuilder10setBoxTypeENS0_6SymbolE
libostyle.so.0:_ZN14OpenJade_DSSSL10FOTBuilder10setCountryEj
libostyle.so.0:_ZN14OpenJade_DSSSL10FOTBuilder10setLineCapENS0_6SymbolE
libostyle.so.0:_ZN14OpenJade_DSSSL10FOTBuilder10setLineSepEl
libostyle.so.0:_ZN14OpenJade_DSSSL10FOTBuilder10startFenceERPS0_S2_
libostyle.so.0:_ZN14OpenJade_DSSSL10FOTBuilder10startScoreENS0_6SymbolE
libostyle.so.0:_ZN14OpenJade_DSSSL10FOTBuilder10startScoreERKNS0_10LengthSpecE
libostyle.so.0:_ZN14OpenJade_DSSSL10FOTBuilder10startScoreEj
libostyle.so.0:_ZN14OpenJade_DSSSL10FOTBuilder10startTableERKNS0_8TableNICE
libostyle.so.0:_ZN14OpenJade_DSSSL10FOTBuilder10symbolNameENS0_6SymbolE
libostyle.so.0:_ZN14OpenJade_DSSSL10FOTBuilder11GridCellNICC1Ev
libostyle.so.0:_ZN14OpenJade_DSSSL10FOTBuilder11GridCellNICC2Ev
libostyle.so.0:_ZN14OpenJade_DSSSL10FOTBuilder11endFractionEv
libostyle.so.0:_ZN14OpenJade_DSSSL10FOTBuilder11endGridCellEv
libostyle.so.0:_ZN14OpenJade_DSSSL10FOTBuilder11endSequenceEv
libostyle.so.0:_ZN14OpenJade_DSSSL10FOTBuilder11endSidelineEv
libostyle.so.0:_ZN14OpenJade_DSSSL10FOTBuilder11endTableRowEv
libostyle.so.0:_ZN14OpenJade_DSSSL10FOTBuilder11fractionBarEv
libostyle.so.0:_ZN14OpenJade_DSSSL10FOTBuilder11setFontNameEPKc
libostyle.so.0:_ZN14OpenJade_DSSSL10FOTBuilder11setFontSizeEl
libostyle.so.0:_ZN14OpenJade_DSSSL10FOTBuilder11setKernModeENS0_6SymbolE
libostyle.so.0:_ZN14OpenJade_DSSSL10FOTBuilder11setLanguageEj
libostyle.so.0:_ZN14OpenJade_DSSSL10FOTBuilder11setLigatureEb
libostyle.so.0:_ZN14OpenJade_DSSSL10FOTBuilder11setLineJoinENS0_6SymbolE
libostyle.so.0:_ZN14OpenJade_DSSSL10FOTBuilder11setQuaddingENS0_6SymbolE
libostyle.so.0:_ZN14OpenJade_DSSSL10FOTBuilder11setSpanWeakEb
libostyle.so.0:_ZN14OpenJade_DSSSL10FOTBuilder11startLeaderERKNS0_9LeaderNICE
libostyle.so.0:_ZN14OpenJade_DSSSL10FOTBuilder11startScriptERPS0_S2_S2_S2_S2_S2_
libostyle.so.0:_ZN14OpenJade_DSSSL10FOTBuilder11startScrollEv
libostyle.so.0:_ZN14OpenJade_DSSSL10FOTBuilder11startUnmathEv
libostyle.so.0:_ZN14OpenJade_DSSSL10FOTBuilder11tableColumnERKNS0_14TableColumnNICE
libostyle.so.0:_ZN14OpenJade_DSSSL10FOTBuilder12CharacterNICC1Ev
libostyle.so.0:_ZN14OpenJade_DSSSL10FOTBuilder12CharacterNICC2Ev
libostyle.so.0:_ZN14OpenJade_DSSSL10FOTBuilder12TableCellNICC1Ev
libostyle.so.0:_ZN14OpenJade_DSSSL10FOTBuilder12TableCellNICC2Ev
libostyle.so.0:_ZN14OpenJade_DSSSL10FOTBuilder12endExtensionERKNS0_24CompoundExtensionFlowObjE
libostyle.so.0:_ZN14OpenJade_DSSSL10FOTBuilder12endLineFieldEv
libostyle.so.0:_ZN14OpenJade_DSSSL10FOTBuilder12endMultiModeEv
libostyle.so.0:_ZN14OpenJade_DSSSL10FOTBuilder12endParagraphEv
libostyle.so.0:_ZN14OpenJade_DSSSL10FOTBuilder12endSubscriptEv
libostyle.so.0:_ZN14OpenJade_DSSSL10FOTBuilder12endTableCellEv
libostyle.so.0:_ZN14OpenJade_DSSSL10FOTBuilder12endTablePartEv
libostyle.so.0:_ZN14OpenJade_DSSSL10FOTBuilder12extensionSetEMS0_FvRKN6OpenSP6StringIjEEES5_
libostyle.so.0:_ZN14OpenJade_DSSSL10FOTBuilder12extensionSetEMS0_FvbEb
libostyle.so.0:_ZN14OpenJade_DSSSL10FOTBuilder12extensionSetEMS0_FvlEl
libostyle.so.0:_ZN14OpenJade_DSSSL10FOTBuilder12setEndIndentERKNS0_10LengthSpecE
libostyle.so.0:_ZN14OpenJade_DSSSL10FOTBuilder12setEndMarginERKNS0_10LengthSpecE
libostyle.so.0:_ZN14OpenJade_DSSSL10FOTBuilder12setHyphenateEb
libostyle.so.0:_ZN14OpenJade_DSSSL10FOTBuilder12setPageWidthEl
libostyle.so.0:_ZN14OpenJade_DSSSL10FOTBuilder12setTopMarginEl
libostyle.so.0:_ZN14OpenJade_DSSSL10FOTBuilder12startRadicalERPS0_
libostyle.so.0:_ZN14OpenJade_DSSSL10FOTBuilder13endMarginaliaEv
libostyle.so.0:_ZN14OpenJade_DSSSL10FOTBuilder13setBoxOpenEndEb
libostyle.so.0:_ZN14OpenJade_DSSSL10FOTBuilder13setExpandTabsEl
libostyle.so.0:_ZN14OpenJade_DSSSL10FOTBuilder13setFieldAlignENS0_6SymbolE
libostyle.so.0:_ZN14OpenJade_DSSSL10FOTBuilder13setFieldWidthERKNS0_10LengthSpecE
libostyle.so.0:_ZN14OpenJade_DSSSL10FOTBuilder13setFontWeightENS0_6SymbolE
libostyle.so.0:_ZN14OpenJade_DSSSL10FOTBuilder13setLeftMarginEl
libostyle.so.0:_ZN14OpenJade_DSSSL10FOTBuilder13setLineRepeatEl
libostyle.so.0:_ZN14OpenJade_DSSSL10FOTBuilder13setMinLeadingERKNS0_13OptLengthSpecE
libostyle.so.0:_ZN14OpenJade_DSSSL10FOTBuilder13setPageHeightEl
libostyle.so.0:_ZN14OpenJade_DSSSL10FOTBuilder13setWidowCountEl
libostyle.so.0:_ZN14OpenJade_DSSSL10FOTBuilder13startFractionERPS0_S2_
libostyle.so.0:_ZN14OpenJade_DSSSL10FOTBuilder13startGridCellERKNS0_11GridCellNICE
libostyle.so.0:_ZN14OpenJade_DSSSL10FOTBuilder13startSequenceEv
libostyle.so.0:_ZN14OpenJade_DSSSL10FOTBuilder13startSidelineEv
libostyle.so.0:_ZN14OpenJade_DSSSL10FOTBuilder13startTableRowEv
libostyle.so.0:_ZN14OpenJade_DSSSL10FOTBuilder14TableColumnNICC1Ev
libostyle.so.0:_ZN14OpenJade_DSSSL10FOTBuilder14TableColumnNICC2Ev
libostyle.so.0:_ZN14OpenJade_DSSSL10FOTBuilder14alignmentPointEv
libostyle.so.0:_ZN14OpenJade_DSSSL10FOTBuilder14endSuperscriptEv
libostyle.so.0:_ZN14OpenJade_DSSSL10FOTBuilder14paragraphBreakERKNS0_10DisplayNICE
libostyle.so.0:_ZN14OpenJade_DSSSL10FOTBuilder14radicalRadicalERKNS0_12CharacterNICE
libostyle.so.0:_ZN14OpenJade_DSSSL10FOTBuilder14setAlignLeaderEb
libostyle.so.0:_ZN14OpenJade_DSSSL10FOTBuilder14setCellCrossedENS0_6SymbolE
libostyle.so.0:_ZN14OpenJade_DSSSL10FOTBuilder14setFontPostureENS0_6SymbolE
libostyle.so.0:_ZN14OpenJade_DSSSL10FOTBuilder14setLineSpacingERKNS0_10LengthSpecE
libostyle.so.0:_ZN14OpenJade_DSSSL10FOTBuilder14setOrphanCountEl
libostyle.so.0:_ZN14OpenJade_DSSSL10FOTBuilder14setRightMarginEl
libostyle.so.0:_ZN14OpenJade_DSSSL10FOTBuilder14setScoreSpacesEb
libostyle.so.0:_ZN14OpenJade_DSSSL10FOTBuilder14setSidelineSepERKNS0_10LengthSpecE
libostyle.so.0:_ZN14OpenJade_DSSSL10FOTBuilder14setStartIndentERKNS0_10LengthSpecE
libostyle.so.0:_ZN14OpenJade_DSSSL10FOTBuilder14setStartMarginERKNS0_10LengthSpecE
libostyle.so.0:_ZN14OpenJade_DSSSL10FOTBuilder14setWritingModeENS0_6SymbolE
libostyle.so.0:_ZN14OpenJade_DSSSL10FOTBuilder14startExtensionERKNS0_24CompoundExtensionFlowObjERKN14OpenJade_Grove7NodePtrERN6OpenSP6VectorIPS0_EE
libostyle.so.0:_ZN14OpenJade_DSSSL10FOTBuilder14startLineFieldERKNS0_9InlineNICE
libostyle.so.0:_ZN14OpenJade_DSSSL10FOTBuilder14startMultiModeEPKNS0_9MultiModeERKN6OpenSP6VectorIS1_EERNS5_IPS0_EE
libostyle.so.0:_ZN14OpenJade_DSSSL10FOTBuilder14startParagraphERKNS0_10DisplayNICE
libostyle.so.0:_ZN14OpenJade_DSSSL10FOTBuilder14startSubscriptEv
libostyle.so.0:_ZN14OpenJade_DSSSL10FOTBuilder14startTableCellERKNS0_12TableCellNICE
libostyle.so.0:_ZN14OpenJade_DSSSL10FOTBuilder14startTablePartERKNS0_10DisplayNICERPS0_S5_
libostyle.so.0:_ZN14OpenJade_DSSSL10FOTBuilder15DisplayGroupNICC1Ev
libostyle.so.0:_ZN14OpenJade_DSSSL10FOTBuilder15DisplayGroupNICC2Ev
libostyle.so.0:_ZN14OpenJade_DSSSL10FOTBuilder15endDisplayGroupEv
libostyle.so.0:_ZN14OpenJade_DSSSL10FOTBuilder15endMathOperatorEv
libostyle.so.0:_ZN14OpenJade_DSSSL10FOTBuilder15endMathSequenceEv
libostyle.so.0:_ZN14OpenJade_DSSSL10FOTBuilder15externalGraphicERKNS0_18ExternalGraphicNICE
libostyle.so.0:_ZN14OpenJade_DSSSL10FOTBuilder15setBottomMarginEl
libostyle.so.0:_ZN14OpenJade_DSSSL10FOTBuilder15setBoxSizeAfterEl
libostyle.so.0:_ZN14OpenJade_DSSSL10FOTBuilder15setFooterMarginEl
libostyle.so.0:_ZN14OpenJade_DSSSL10FOTBuilder15setHangingPunctEb
libostyle.so.0:_ZN14OpenJade_DSSSL10FOTBuilder15setHeaderMarginEl
libostyle.so.0:_ZN14OpenJade_DSSSL10FOTBuilder15setSidelineSideENS0_6SymbolE
libostyle.so.0:_ZN14OpenJade_DSSSL10FOTBuilder15startMarginaliaEv
libostyle.so.0:_ZN14OpenJade_DSSSL10FOTBuilder16ExtensionFlowObj26asCompoundExtensionFlowObjEv
libostyle.so.0:_ZN14OpenJade_DSSSL10FOTBuilder16ExtensionFlowObj6setNICERKN6OpenSP6StringIjEERKNS1_5ValueE
libostyle.so.0:_ZN14OpenJade_DSSSL10FOTBuilder16ExtensionFlowObjD0Ev
libostyle.so.0:_ZN14OpenJade_DSSSL10FOTBuilder16ExtensionFlowObjD1Ev
libostyle.so.0:_ZN14OpenJade_DSSSL10FOTBuilder16ExtensionFlowObjD2Ev
libostyle.so.0:_ZN14OpenJade_DSSSL10FOTBuilder16asSaveFOTBuilderEv
libostyle.so.0:_ZN14OpenJade_DSSSL10FOTBuilder16setBorderPresentEb
libostyle.so.0:_ZN14OpenJade_DSSSL10FOTBuilder16setBoxSizeBeforeEl
libostyle.so.0:_ZN14OpenJade_DSSSL10FOTBuilder16setFontStructureENS0_6SymbolE
libostyle.so.0:_ZN14OpenJade_DSSSL10FOTBuilder16setLineNumberSepERKNS0_10LengthSpecE
libostyle.so.0:_ZN14OpenJade_DSSSL10FOTBuilder16setLineThicknessEl
libostyle.so.0:_ZN14OpenJade_DSSSL10FOTBuilder16setMarginaliaSepERKNS0_10LengthSpecE
libostyle.so.0:_ZN14OpenJade_DSSSL10FOTBuilder16setNumberedLinesEb
libostyle.so.0:_ZN14OpenJade_DSSSL10FOTBuilder16startSuperscriptEv
libostyle.so.0:_ZN14OpenJade_DSSSL10FOTBuilder17setAsisWrapIndentERKNS0_10LengthSpecE
libostyle.so.0:_ZN14OpenJade_DSSSL10FOTBuilder17setBackgroundTileEPKc
libostyle.so.0:_ZN14OpenJade_DSSSL10FOTBuilder17setBorderPriorityEl
libostyle.so.0:_ZN14OpenJade_DSSSL10FOTBuilder17setCellBackgroundEb
libostyle.so.0:_ZN14OpenJade_DSSSL10FOTBuilder17setFontFamilyNameERKN6OpenSP6StringIjEE
libostyle.so.0:_ZN14OpenJade_DSSSL10FOTBuilder17setLineNumberSideENS0_6SymbolE
libostyle.so.0:_ZN14OpenJade_DSSSL10FOTBuilder17setMarginaliaSideENS0_6SymbolE
libostyle.so.0:_ZN14OpenJade_DSSSL10FOTBuilder17setNumeratorAlignENS0_6SymbolE
libostyle.so.0:_ZN14OpenJade_DSSSL10FOTBuilder17setScriptPreAlignENS0_6SymbolE
libostyle.so.0:_ZN14OpenJade_DSSSL10FOTBuilder17setTruncateLeaderEb
libostyle.so.0:_ZN14OpenJade_DSSSL10FOTBuilder17startDisplayGroupERKNS0_15DisplayGroupNICE
libostyle.so.0:_ZN14OpenJade_DSSSL10FOTBuilder17startMathOperatorERPS0_S2_S2_
libostyle.so.0:_ZN14OpenJade_DSSSL10FOTBuilder17startMathSequenceEv
libostyle.so.0:_ZN14OpenJade_DSSSL10FOTBuilder18ExternalGraphicNICC1Ev
libostyle.so.0:_ZN14OpenJade_DSSSL10FOTBuilder18ExternalGraphicNICC2Ev
libostyle.so.0:_ZN14OpenJade_DSSSL10FOTBuilder18charactersFromNodeERKN14OpenJade_Grove7NodePtrEPKjm
libostyle.so.0:_ZN14OpenJade_DSSSL10FOTBuilder18setBackgroundColorERKNS0_14DeviceRGBColorE
libostyle.so.0:_ZN14OpenJade_DSSSL10FOTBuilder18setBackgroundColorEv
libostyle.so.0:_ZN14OpenJade_DSSSL10FOTBuilder18setBackgroundLayerEl
libostyle.so.0:_ZN14OpenJade_DSSSL10FOTBuilder18setBorderAlignmentENS0_6SymbolE
libostyle.so.0:_ZN14OpenJade_DSSSL10FOTBuilder18setBoxCornerRadiusERKNS0_10LengthSpecE
libostyle.so.0:_ZN14OpenJade_DSSSL10FOTBuilder18setGlyphSubstTableERKN6OpenSP6VectorINS1_8ConstPtrINS0_15GlyphSubstTableEEEEE
libostyle.so.0:_ZN14OpenJade_DSSSL10FOTBuilder18setHyphenationKeepENS0_6SymbolE
libostyle.so.0:_ZN14OpenJade_DSSSL10FOTBuilder18setIgnoreRecordEndEb
libostyle.so.0:_ZN14OpenJade_DSSSL10FOTBuilder18setMathDisplayModeENS0_6SymbolE
libostyle.so.0:_ZN14OpenJade_DSSSL10FOTBuilder18setMinLeaderRepeatEl
libostyle.so.0:_ZN14OpenJade_DSSSL10FOTBuilder18setScriptPostAlignENS0_6SymbolE
libostyle.so.0:_ZN14OpenJade_DSSSL10FOTBuilder19setCellRowAlignmentENS0_6SymbolE
libostyle.so.0:_ZN14OpenJade_DSSSL10FOTBuilder19setDenominatorAlignENS0_6SymbolE
libostyle.so.0:_ZN14OpenJade_DSSSL10FOTBuilder19setDisplayAlignmentENS0_6SymbolE
libostyle.so.0:_ZN14OpenJade_DSSSL10FOTBuilder19setFillingDirectionENS0_6SymbolE
libostyle.so.0:_ZN14OpenJade_DSSSL10FOTBuilder19setGlyphSubstMethodEPKc
libostyle.so.0:_ZN14OpenJade_DSSSL10FOTBuilder19setGridRowAlignmentENS0_6SymbolE
libostyle.so.0:_ZN14OpenJade_DSSSL10FOTBuilder19setInlineSpaceSpaceERKNS0_14OptInlineSpaceE
libostyle.so.0:_ZN14OpenJade_DSSSL10FOTBuilder19setLastLineQuaddingENS0_6SymbolE
libostyle.so.0:_ZN14OpenJade_DSSSL10FOTBuilder19tableAfterRowBorderEv
libostyle.so.0:_ZN14OpenJade_DSSSL10FOTBuilder20setBorderOmitAtBreakEb
libostyle.so.0:_ZN14OpenJade_DSSSL10FOTBuilder20setFloatOutSidelinesEb
libostyle.so.0:_ZN14OpenJade_DSSSL10FOTBuilder20setHyphenationMethodEPKc
libostyle.so.0:_ZN14OpenJade_DSSSL10FOTBuilder20setInhibitLineBreaksEb
libostyle.so.0:_ZN14OpenJade_DSSSL10FOTBuilder20setLastLineEndIndentERKNS0_10LengthSpecE
libostyle.so.0:_ZN14OpenJade_DSSSL10FOTBuilder20setMinPreLineSpacingERKNS0_13OptLengthSpecE
libostyle.so.0:_ZN14OpenJade_DSSSL10FOTBuilder20setScriptMidSubAlignENS0_6SymbolE
libostyle.so.0:_ZN14OpenJade_DSSSL10FOTBuilder20setScriptMidSupAlignENS0_6SymbolE
libostyle.so.0:_ZN14OpenJade_DSSSL10FOTBuilder20setTableCornerRadiusERKNS0_10LengthSpecE
libostyle.so.0:_ZN14OpenJade_DSSSL10FOTBuilder20tableBeforeRowBorderEv
libostyle.so.0:_ZN14OpenJade_DSSSL10FOTBuilder21currentNodePageNumberERKN14OpenJade_Grove7NodePtrE
libostyle.so.0:_ZN14OpenJade_DSSSL10FOTBuilder21endSimplePageSequenceEv
libostyle.so.0:_ZN14OpenJade_DSSSL10FOTBuilder21formattingInstructionERKN6OpenSP6StringIjEE
libostyle.so.0:_ZN14OpenJade_DSSSL10FOTBuilder21setBoxBorderAlignmentENS0_6SymbolE
libostyle.so.0:_ZN14OpenJade_DSSSL10FOTBuilder21setCellAfterRowMarginEl
libostyle.so.0:_ZN14OpenJade_DSSSL10FOTBuilder21setFloatOutMarginaliaEb
libostyle.so.0:_ZN14OpenJade_DSSSL10FOTBuilder21setGlyphAlignmentModeENS0_6SymbolE
libostyle.so.0:_ZN14OpenJade_DSSSL10FOTBuilder21setGlyphReorderMethodEPKc
libostyle.so.0:_ZN14OpenJade_DSSSL10FOTBuilder21setImplicitBidiMethodEPKc
libostyle.so.0:_ZN14OpenJade_DSSSL10FOTBuilder21setLineBreakingMethodEPKc
libostyle.so.0:_ZN14OpenJade_DSSSL10FOTBuilder21setMinPostLineSpacingERKNS0_13OptLengthSpecE
libostyle.so.0:_ZN14OpenJade_DSSSL10FOTBuilder21setPositionPointShiftERKNS0_10LengthSpecE
libostyle.so.0:_ZN14OpenJade_DSSSL10FOTBuilder22setCellBeforeRowMarginEl
libostyle.so.0:_ZN14OpenJade_DSSSL10FOTBuilder22setFloatOutLineNumbersEb
libostyle.so.0:_ZN14OpenJade_DSSSL10FOTBuilder22setGridColumnAlignmentENS0_6SymbolE
libostyle.so.0:_ZN14OpenJade_DSSSL10FOTBuilder22setGridEquidistantRowsEb
libostyle.so.0:_ZN14OpenJade_DSSSL10FOTBuilder22tableAfterColumnBorderEv
libostyle.so.0:_ZN14OpenJade_DSSSL10FOTBuilder23radicalRadicalDefaultedEv
libostyle.so.0:_ZN14OpenJade_DSSSL10FOTBuilder23setEscapementSpaceAfterERKNS0_11InlineSpaceE
libostyle.so.0:_ZN14OpenJade_DSSSL10FOTBuilder23setFirstLineStartIndentERKNS0_10LengthSpecE
libostyle.so.0:_ZN14OpenJade_DSSSL10FOTBuilder23setGridPositionCellTypeENS0_6SymbolE
libostyle.so.0:_ZN14OpenJade_DSSSL10FOTBuilder23setLastLineJustifyLimitERKNS0_10LengthSpecE
libostyle.so.0:_ZN14OpenJade_DSSSL10FOTBuilder23setTableAutoWidthMethodEPKc
libostyle.so.0:_ZN14OpenJade_DSSSL10FOTBuilder23startSimplePageSequenceEPPS0_
libostyle.so.0:_ZN14OpenJade_DSSSL10FOTBuilder23tableBeforeColumnBorderEv
libostyle.so.0:_ZN14OpenJade_DSSSL10FOTBuilder23tableCellAfterRowBorderEv
libostyle.so.0:_ZN14OpenJade_DSSSL10FOTBuilder24CompoundExtensionFlowObj26asCompoundExtensionFlowObjEv
libostyle.so.0:_ZN14OpenJade_DSSSL10FOTBuilder24setCellAfterColumnMarginEl
libostyle.so.0:_ZN14OpenJade_DSSSL10FOTBuilder24setEscapementSpaceBeforeERKNS0_11InlineSpaceE
libostyle.so.0:_ZN14OpenJade_DSSSL10FOTBuilder24setLineCompositionMethodEPKc
libostyle.so.0:_ZN14OpenJade_DSSSL10FOTBuilder24tableCellBeforeRowBorderEv
libostyle.so.0:_ZN14OpenJade_DSSSL10FOTBuilder25setCellBeforeColumnMarginEl
libostyle.so.0:_ZN14OpenJade_DSSSL10FOTBuilder25setFontProportionateWidthENS0_6SymbolE
libostyle.so.0:_ZN14OpenJade_DSSSL10FOTBuilder25setGridEquidistantColumnsEb
libostyle.so.0:_ZN14OpenJade_DSSSL10FOTBuilder25setHyphenationLadderCountEl
libostyle.so.0:_ZN14OpenJade_DSSSL10FOTBuilder26setJustifyGlyphSpaceMaxAddERKNS0_10LengthSpecE
libostyle.so.0:_ZN14OpenJade_DSSSL10FOTBuilder26tableCellAfterColumnBorderEv
libostyle.so.0:_ZN14OpenJade_DSSSL10FOTBuilder27setHyphenationPushCharCountEl
libostyle.so.0:_ZN14OpenJade_DSSSL10FOTBuilder27setInputWhitespaceTreatmentENS0_6SymbolE
libostyle.so.0:_ZN14OpenJade_DSSSL10FOTBuilder27tableCellBeforeColumnBorderEv
libostyle.so.0:_ZN14OpenJade_DSSSL10FOTBuilder28setPrincipalModeSimultaneousEb
libostyle.so.0:_ZN14OpenJade_DSSSL10FOTBuilder28setTablePartOmitMiddleFooterEb
libostyle.so.0:_ZN14OpenJade_DSSSL10FOTBuilder28setTablePartOmitMiddleHeaderEb
libostyle.so.0:_ZN14OpenJade_DSSSL10FOTBuilder29setHyphenationRemainCharCountEl
libostyle.so.0:_ZN14OpenJade_DSSSL10FOTBuilder29setJustifyGlyphSpaceMaxRemoveERKNS0_10LengthSpecE
libostyle.so.0:_ZN14OpenJade_DSSSL10FOTBuilder29setMarginaliaKeepWithPreviousEb
libostyle.so.0:_ZN14OpenJade_DSSSL10FOTBuilder33endSimplePageSequenceHeaderFooterEv
libostyle.so.0:_ZN14OpenJade_DSSSL10FOTBuilder3endEv
libostyle.so.0:_ZN14OpenJade_DSSSL10FOTBuilder4ruleERKNS0_7RuleNICE
libostyle.so.0:_ZN14OpenJade_DSSSL10FOTBuilder5startEv
libostyle.so.0:_ZN14OpenJade_DSSSL10FOTBuilder6BoxNICC1Ev
libostyle.so.0:_ZN14OpenJade_DSSSL10FOTBuilder6BoxNICC2Ev
libostyle.so.0:_ZN14OpenJade_DSSSL10FOTBuilder6atomicEv
libostyle.so.0:_ZN14OpenJade_DSSSL10FOTBuilder6endBoxEv
libostyle.so.0:_ZN14OpenJade_DSSSL10FOTBuilder7GridNICC1Ev
libostyle.so.0:_ZN14OpenJade_DSSSL10FOTBuilder7GridNICC2Ev
libostyle.so.0:_ZN14OpenJade_DSSSL10FOTBuilder7RuleNICC1Ev
libostyle.so.0:_ZN14OpenJade_DSSSL10FOTBuilder7RuleNICC2Ev
libostyle.so.0:_ZN14OpenJade_DSSSL10FOTBuilder7endGridEv
libostyle.so.0:_ZN14OpenJade_DSSSL10FOTBuilder7endLinkEv
libostyle.so.0:_ZN14OpenJade_DSSSL10FOTBuilder7endMarkEv
libostyle.so.0:_ZN14OpenJade_DSSSL10FOTBuilder7endNodeEv
libostyle.so.0:_ZN14OpenJade_DSSSL10FOTBuilder7setKernEb
libostyle.so.0:_ZN14OpenJade_DSSSL10FOTBuilder7setSpanEl
libostyle.so.0:_ZN14OpenJade_DSSSL10FOTBuilder8TableNICC1Ev
libostyle.so.0:_ZN14OpenJade_DSSSL10FOTBuilder8TableNICC2Ev
libostyle.so.0:_ZN14OpenJade_DSSSL10FOTBuilder8endFenceEv
libostyle.so.0:_ZN14OpenJade_DSSSL10FOTBuilder8endScoreEv
libostyle.so.0:_ZN14OpenJade_DSSSL10FOTBuilder8endTableEv
libostyle.so.0:_ZN14OpenJade_DSSSL10FOTBuilder8setColorERKNS0_14DeviceRGBColorE
libostyle.so.0:_ZN14OpenJade_DSSSL10FOTBuilder8setLayerEl
libostyle.so.0:_ZN14OpenJade_DSSSL10FOTBuilder8setLinesENS0_6SymbolE
libostyle.so.0:_ZN14OpenJade_DSSSL10FOTBuilder8startBoxERKNS0_6BoxNICE
libostyle.so.0:_ZN14OpenJade_DSSSL10FOTBuilder9InlineNICC1Ev
libostyle.so.0:_ZN14OpenJade_DSSSL10FOTBuilder9InlineNICC2Ev
libostyle.so.0:_ZN14OpenJade_DSSSL10FOTBuilder9LeaderNICC1Ev
libostyle.so.0:_ZN14OpenJade_DSSSL10FOTBuilder9LeaderNICC2Ev
libostyle.so.0:_ZN14OpenJade_DSSSL10FOTBuilder9MultiModeC1Ev
libostyle.so.0:_ZN14OpenJade_DSSSL10FOTBuilder9MultiModeC2Ev
libostyle.so.0:_ZN14OpenJade_DSSSL10FOTBuilder9characterERKNS0_12CharacterNICE
libostyle.so.0:_ZN14OpenJade_DSSSL10FOTBuilder9endLeaderEv
libostyle.so.0:_ZN14OpenJade_DSSSL10FOTBuilder9endScriptEv
libostyle.so.0:_ZN14OpenJade_DSSSL10FOTBuilder9endScrollEv
libostyle.so.0:_ZN14OpenJade_DSSSL10FOTBuilder9endUnmathEv
libostyle.so.0:_ZN14OpenJade_DSSSL10FOTBuilder9extensionERKNS0_16ExtensionFlowObjERKN14OpenJade_Grove7NodePtrE
libostyle.so.0:_ZN14OpenJade_DSSSL10FOTBuilder9startGridERKNS0_7GridNICE
libostyle.so.0:_ZN14OpenJade_DSSSL10FOTBuilder9startLinkERKNS0_7AddressE
libostyle.so.0:_ZN14OpenJade_DSSSL10FOTBuilder9startMarkERPS0_S2_
libostyle.so.0:_ZN14OpenJade_DSSSL10FOTBuilder9startNodeERKN14OpenJade_Grove7NodePtrERKN6OpenSP6StringIjEE
libostyle.so.0:_ZN14OpenJade_DSSSL10FOTBuilderD0Ev
libostyle.so.0:_ZN14OpenJade_DSSSL10FOTBuilderD1Ev
libostyle.so.0:_ZN14OpenJade_DSSSL10FOTBuilderD2Ev
libostyle.so.0:_ZN14OpenJade_DSSSL10GlyphIdObj7isEqualERNS_5ELObjE
libostyle.so.0:_ZN14OpenJade_DSSSL10GlyphIdObjC1ERKNS_10FOTBuilder7GlyphIdE
libostyle.so.0:_ZN14OpenJade_DSSSL10GlyphIdObjC2ERKNS_10FOTBuilder7GlyphIdE
libostyle.so.0:_ZN14OpenJade_DSSSL10Identifier13setDefinitionERN6OpenSP5OwnerINS_10ExpressionEEEjRKNS1_8LocationE
libostyle.so.0:_ZN14OpenJade_DSSSL10Identifier16maybeSaveBuiltinEv
libostyle.so.0:_ZN14OpenJade_DSSSL10Identifier8setValueEPNS_5ELObjEj
libostyle.so.0:_ZN14OpenJade_DSSSL10IdentifierC1ERKN6OpenSP6StringIjEE
libostyle.so.0:_ZN14OpenJade_DSSSL10IdentifierC2ERKN6OpenSP6StringIjEE
libostyle.so.0:_ZN14OpenJade_DSSSL10InheritedCC1EPKNS_10IdentifierEj
libostyle.so.0:_ZN14OpenJade_DSSSL10InheritedCC2EPKNS_10IdentifierEj
libostyle.so.0:_ZN14OpenJade_DSSSL10InheritedCD0Ev
libostyle.so.0:_ZN14OpenJade_DSSSL10InheritedCD1Ev
libostyle.so.0:_ZN14OpenJade_DSSSL10InheritedCD2Ev
libostyle.so.0:_ZN14OpenJade_DSSSL10IntegerObj13quantityValueERlRdRi
libostyle.so.0:_ZN14OpenJade_DSSSL10IntegerObj17exactIntegerValueERl
libostyle.so.0:_ZN14OpenJade_DSSSL10IntegerObj5printERNS_11InterpreterERN6OpenSP16OutputCharStreamE
libostyle.so.0:_ZN14OpenJade_DSSSL10IntegerObj5printERNS_11InterpreterERN6OpenSP16OutputCharStreamEj
libostyle.so.0:_ZN14OpenJade_DSSSL10IntegerObj7isEqualERNS_5ELObjE
libostyle.so.0:_ZN14OpenJade_DSSSL10IntegerObj9realValueERd
libostyle.so.0:_ZN14OpenJade_DSSSL10IntegerObjC1El
libostyle.so.0:_ZN14OpenJade_DSSSL10IntegerObjC1Ev
libostyle.so.0:_ZN14OpenJade_DSSSL10IntegerObjC2El
libostyle.so.0:_ZN14OpenJade_DSSSL10IntegerObjC2Ev
libostyle.so.0:_ZN14OpenJade_DSSSL10KeywordObj5printERNS_11InterpreterERN6OpenSP16OutputCharStreamE
libostyle.so.0:_ZN14OpenJade_DSSSL10KeywordObj7isEqualERNS_5ELObjE
libostyle.so.0:_ZN14OpenJade_DSSSL10KeywordObj9asKeywordEv
libostyle.so.0:_ZN14OpenJade_DSSSL10KeywordObjC1EPKNS_10IdentifierE
libostyle.so.0:_ZN14OpenJade_DSSSL10KeywordObjC2EPKNS_10IdentifierE
libostyle.so.0:_ZN14OpenJade_DSSSL10LengthSpecC1ENS0_7UnknownEd
libostyle.so.0:_ZN14OpenJade_DSSSL10LengthSpecC1Ed
libostyle.so.0:_ZN14OpenJade_DSSSL10LengthSpecC1Ev
libostyle.so.0:_ZN14OpenJade_DSSSL10LengthSpecC2ENS0_7UnknownEd
libostyle.so.0:_ZN14OpenJade_DSSSL10LengthSpecC2Ed
libostyle.so.0:_ZN14OpenJade_DSSSL10LengthSpecC2Ev
libostyle.so.0:_ZN14OpenJade_DSSSL10LengthSpecdVEd
libostyle.so.0:_ZN14OpenJade_DSSSL10LengthSpecmIERKS0_
libostyle.so.0:_ZN14OpenJade_DSSSL10LengthSpecmLEd
libostyle.so.0:_ZN14OpenJade_DSSSL10LengthSpecpLERKS0_
libostyle.so.0:_ZN14OpenJade_DSSSL10RefLangObj10asLanguageEv
libostyle.so.0:_ZN14OpenJade_DSSSL10RefLangObj10localeNameERKN6OpenSP6StringIjEES5_
libostyle.so.0:_ZN14OpenJade_DSSSL10RefLangObj17supportedLanguageERKN6OpenSP6StringIjEES5_
libostyle.so.0:_ZN14OpenJade_DSSSL10RefLangObjC1ERKN6OpenSP6StringIjEES5_
libostyle.so.0:_ZN14OpenJade_DSSSL10RefLangObjC2ERKN6OpenSP6StringIjEES5_
libostyle.so.0:_ZN14OpenJade_DSSSL10RefLangObjD0Ev
libostyle.so.0:_ZN14OpenJade_DSSSL10RefLangObjD1Ev
libostyle.so.0:_ZN14OpenJade_DSSSL10RefLangObjD2Ev
libostyle.so.0:_ZN14OpenJade_DSSSL10ReturnInsnC1Ei
libostyle.so.0:_ZN14OpenJade_DSSSL10ReturnInsnC2Ei
libostyle.so.0:_ZN14OpenJade_DSSSL10SetBoxInsnC1EiN6OpenSP8ConstPtrINS_4InsnEEE
libostyle.so.0:_ZN14OpenJade_DSSSL10SetBoxInsnC2EiN6OpenSP8ConstPtrINS_4InsnEEE
libostyle.so.0:_ZN14OpenJade_DSSSL10StyleStack12pushContinueEPNS_8StyleObjEPKNS_14ProcessingMode4RuleERKN14OpenJade_Grove7NodePtrEPN6OpenSP9MessengerE
libostyle.so.0:_ZN14OpenJade_DSSSL10StyleStack3popEv
libostyle.so.0:_ZN14OpenJade_DSSSL10StyleStack6actualERKN6OpenSP8ConstPtrINS_10InheritedCEEERKNS1_8LocationERNS_11InterpreterERNS1_6VectorImEE
libostyle.so.0:_ZN14OpenJade_DSSSL10StyleStack7pushEndERNS_2VMERNS_10FOTBuilderE
libostyle.so.0:_ZN14OpenJade_DSSSL10StyleStack9inheritedERKN6OpenSP8ConstPtrINS_10InheritedCEEEjRNS_11InterpreterERNS1_6VectorImEE
libostyle.so.0:_ZN14OpenJade_DSSSL10StyleStackC1Ev
libostyle.so.0:_ZN14OpenJade_DSSSL10StyleStackC2Ev
libostyle.so.0:_ZN14OpenJade_DSSSL10TopRefInsnC1EPKNS_10IdentifierEN6OpenSP8ConstPtrINS_4InsnEEE
libostyle.so.0:_ZN14OpenJade_DSSSL10TopRefInsnC2EPKNS_10IdentifierEN6OpenSP8ConstPtrINS_4InsnEEE
libostyle.so.0:_ZN14OpenJade_DSSSL10VectorInsnC1EmN6OpenSP8ConstPtrINS_4InsnEEE
libostyle.so.0:_ZN14OpenJade_DSSSL10VectorInsnC2EmN6OpenSP8ConstPtrINS_4InsnEEE
libostyle.so.0:_ZN14OpenJade_DSSSL11ClosureInsnC1EPKNS_9SignatureEN6OpenSP8ConstPtrINS_4InsnEEEiS7_
libostyle.so.0:_ZN14OpenJade_DSSSL11ClosureInsnC2EPKNS_9SignatureEN6OpenSP8ConstPtrINS_4InsnEEEiS7_
libostyle.so.0:_ZN14OpenJade_DSSSL11Environment12augmentFrameERKNS_12BoundVarListEi
libostyle.so.0:_ZN14OpenJade_DSSSL11EnvironmentC1ERKNS_12BoundVarListES3_
libostyle.so.0:_ZN14OpenJade_DSSSL11EnvironmentC1Ev
libostyle.so.0:_ZN14OpenJade_DSSSL11EnvironmentC2ERKNS_12BoundVarListES3_
libostyle.so.0:_ZN14OpenJade_DSSSL11EnvironmentC2Ev
libostyle.so.0:_ZN14OpenJade_DSSSL11FunctionObj10asFunctionEv
libostyle.so.0:_ZN14OpenJade_DSSSL11FunctionObj10setArgToCCERNS_2VME
libostyle.so.0:_ZN14OpenJade_DSSSL11FunctionObj12makeCallInsnEiRNS_11InterpreterERKN6OpenSP8LocationENS3_8ConstPtrINS_4InsnEEE
libostyle.so.0:_ZN14OpenJade_DSSSL11FunctionObj16makeTailCallInsnEiRNS_11InterpreterERKN6OpenSP8LocationEi
libostyle.so.0:_ZN14OpenJade_DSSSL11GridFlowObj12processInnerERNS_14ProcessContextE
libostyle.so.0:_ZN14OpenJade_DSSSL11GridFlowObj16setNonInheritedCEPKNS_10IdentifierEPNS_5ELObjERKN6OpenSP8LocationERNS_11InterpreterE
libostyle.so.0:_ZN14OpenJade_DSSSL11GridFlowObjC1ERKS0_
libostyle.so.0:_ZN14OpenJade_DSSSL11GridFlowObjC1Ev
libostyle.so.0:_ZN14OpenJade_DSSSL11GridFlowObjC2ERKS0_
libostyle.so.0:_ZN14OpenJade_DSSSL11GridFlowObjC2Ev
libostyle.so.0:_ZN14OpenJade_DSSSL11Interpreter10lookupUnitERKN6OpenSP6StringIjEE
libostyle.so.0:_ZN14OpenJade_DSSSL11Interpreter10makeSymbolERKN6OpenSP6StringIjEE
libostyle.so.0:_ZN14OpenJade_DSSSL11Interpreter11addNameCharERKN6OpenSP6StringIjEE
libostyle.so.0:_ZN14OpenJade_DSSSL11Interpreter11makeStringCEPKc
libostyle.so.0:_ZN14OpenJade_DSSSL11Interpreter12charPropertyERKN6OpenSP6StringIjEEjRKNS1_8LocationEPNS_5ELObjE
libostyle.so.0:_ZN14OpenJade_DSSSL11Interpreter12convertCharCEPNS_5ELObjEPKNS_10IdentifierERKN6OpenSP8LocationERj
libostyle.so.0:_ZN14OpenJade_DSSSL11Interpreter12convertEnumCEPKNS_10FOTBuilder6SymbolEmPNS_5ELObjEPKNS_10IdentifierERKN6OpenSP8LocationERS2_
libostyle.so.0:_ZN14OpenJade_DSSSL11Interpreter12convertEnumCEPNS_5ELObjEPKNS_10IdentifierERKN6OpenSP8LocationERNS_10FOTBuilder6SymbolE
libostyle.so.0:_ZN14OpenJade_DSSSL11Interpreter12convertRealCEPNS_5ELObjEPKNS_10IdentifierERKN6OpenSP8LocationERd
libostyle.so.0:_ZN14OpenJade_DSSSL11Interpreter12installSdataEv
libostyle.so.0:_ZN14OpenJade_DSSSL11Interpreter12installUnitsEv
libostyle.so.0:_ZN14OpenJade_DSSSL11Interpreter13convertColorCEPNS_5ELObjEPKNS_10IdentifierERKN6OpenSP8LocationERPNS_8ColorObjE
libostyle.so.0:_ZN14OpenJade_DSSSL11Interpreter13convertNumberERKN6OpenSP6StringIjEEi
libostyle.so.0:_ZN14OpenJade_DSSSL11Interpreter13storePublicIdEPKjmRKN6OpenSP8LocationE
libostyle.so.0:_ZN14OpenJade_DSSSL11Interpreter14addSdataEntityERKN6OpenSP6StringIjEES5_S5_
libostyle.so.0:_ZN14OpenJade_DSSSL11Interpreter14convertGlyphIdEPKjmRKN6OpenSP8LocationE
libostyle.so.0:_ZN14OpenJade_DSSSL11Interpreter14convertLengthCEPNS_5ELObjEPKNS_10IdentifierERKN6OpenSP8LocationERl
libostyle.so.0:_ZN14OpenJade_DSSSL11Interpreter14convertStringCEPNS_5ELObjEPKNS_10IdentifierERKN6OpenSP8LocationERNS6_6StringIjEE
libostyle.so.0:_ZN14OpenJade_DSSSL11Interpreter14makeLengthSpecERKNS_10FOTBuilder10LengthSpecE
libostyle.so.0:_ZN14OpenJade_DSSSL11Interpreter14scanSignDigitsERKN6OpenSP6StringIjEERmRi
libostyle.so.0:_ZN14OpenJade_DSSSL11Interpreter15addCharPropertyEPKNS_10IdentifierERN6OpenSP5OwnerINS_10ExpressionEEE
libostyle.so.0:_ZN14OpenJade_DSSSL11Interpreter15addStandardCharERKN6OpenSP6StringIjEES5_
libostyle.so.0:_ZN14OpenJade_DSSSL11Interpreter15convertBooleanCEPNS_5ELObjEPKNS_10IdentifierERKN6OpenSP8LocationERb
libostyle.so.0:_ZN14OpenJade_DSSSL11Interpreter15convertIntegerCEPNS_5ELObjEPKNS_10IdentifierERKN6OpenSP8LocationERl
libostyle.so.0:_ZN14OpenJade_DSSSL11Interpreter15convertLetter2CEPNS_5ELObjEPKNS_10IdentifierERKN6OpenSP8LocationERj
libostyle.so.0:_ZN14OpenJade_DSSSL11Interpreter15dispatchMessageERKN6OpenSP7MessageE
libostyle.so.0:_ZN14OpenJade_DSSSL11Interpreter15dispatchMessageERN6OpenSP7MessageE
libostyle.so.0:_ZN14OpenJade_DSSSL11Interpreter15installBuiltinsEv
libostyle.so.0:_ZN14OpenJade_DSSSL11Interpreter15installFlowObjsEv
libostyle.so.0:_ZN14OpenJade_DSSSL11Interpreter15setCharPropertyEPKNS_10IdentifierEjRN6OpenSP5OwnerINS_10ExpressionEEE
libostyle.so.0:_ZN14OpenJade_DSSSL11Interpreter15setNodeLocationERKN14OpenJade_Grove7NodePtrE
libostyle.so.0:_ZN14OpenJade_DSSSL11Interpreter16addSeparatorCharERKN6OpenSP6StringIjEE
libostyle.so.0:_ZN14OpenJade_DSSSL11Interpreter16convertOptColorCEPNS_5ELObjEPKNS_10IdentifierERKN6OpenSP8LocationERPNS_8ColorObjE
libostyle.so.0:_ZN14OpenJade_DSSSL11Interpreter16convertPublicIdCEPNS_5ELObjEPKNS_10IdentifierERKN6OpenSP8LocationERPKc
libostyle.so.0:_ZN14OpenJade_DSSSL11Interpreter16convertToPatternEPNS_5ELObjERKN6OpenSP8LocationERNS_7PatternE
libostyle.so.0:_ZN14OpenJade_DSSSL11Interpreter16convertToPatternEPNS_5ELObjERKN6OpenSP8LocationEbRNS3_5IListINS_7Pattern7ElementEEE
libostyle.so.0:_ZN14OpenJade_DSSSL11Interpreter16installCharNamesEv
libostyle.so.0:_ZN14OpenJade_DSSSL11Interpreter16installPortNamesEv
libostyle.so.0:_ZN14OpenJade_DSSSL11Interpreter16installPrimitiveEPKcPNS_12PrimitiveObjE
libostyle.so.0:_ZN14OpenJade_DSSSL11Interpreter17convertFromStringEPNS_5ELObjEjRKN6OpenSP8LocationE
libostyle.so.0:_ZN14OpenJade_DSSSL11Interpreter17convertLengthSpecEPNS_5ELObjERNS_10FOTBuilder10LengthSpecE
libostyle.so.0:_ZN14OpenJade_DSSSL11Interpreter17installInheritedCEPKcPNS_10InheritedCE
libostyle.so.0:_ZN14OpenJade_DSSSL11Interpreter17installPrimitivesEv
libostyle.so.0:_ZN14OpenJade_DSSSL11Interpreter17installXPrimitiveEPKcS2_PNS_12PrimitiveObjE
libostyle.so.0:_ZN14OpenJade_DSSSL11Interpreter17setCharRepertoireERKN6OpenSP6StringIjEE
libostyle.so.0:_ZN14OpenJade_DSSSL11Interpreter18convertLengthSpecCEPNS_5ELObjEPKNS_10IdentifierERKN6OpenSP8LocationERNS_10FOTBuilder10LengthSpecE
libostyle.so.0:_ZN14OpenJade_DSSSL11Interpreter18convertNumberFloatERKN6OpenSP6StringIjEE
libostyle.so.0:_ZN14OpenJade_DSSSL11Interpreter18installInheritedCsEv
libostyle.so.0:_ZN14OpenJade_DSSSL11Interpreter18lookupNodePropertyERKN6OpenSP6StringIjEERN14OpenJade_Grove13ComponentName2IdE
libostyle.so.0:_ZN14OpenJade_DSSSL11Interpreter18setDefaultLanguageERN6OpenSP5OwnerINS_10ExpressionEEEjRKNS1_8LocationE
libostyle.so.0:_ZN14OpenJade_DSSSL11Interpreter19installInitialValueEPNS_10IdentifierERN6OpenSP5OwnerINS_10ExpressionEEE
libostyle.so.0:_ZN14OpenJade_DSSSL11Interpreter20compileInitialValuesEv
libostyle.so.0:_ZN14OpenJade_DSSSL11Interpreter20installCValueSymbolsEv
libostyle.so.0:_ZN14OpenJade_DSSSL11Interpreter20installSyntacticKeysEv
libostyle.so.0:_ZN14OpenJade_DSSSL11Interpreter20lookupProcessingModeERKN6OpenSP6StringIjEE
libostyle.so.0:_ZN14OpenJade_DSSSL11Interpreter20normalizeGeneralNameERKN14OpenJade_Grove7NodePtrERN6OpenSP6StringIjEE
libostyle.so.0:_ZN14OpenJade_DSSSL11Interpreter21compileCharPropertiesEv
libostyle.so.0:_ZN14OpenJade_DSSSL11Interpreter21convertOptLengthSpecCEPNS_5ELObjEPKNS_10IdentifierERKN6OpenSP8LocationERNS_10FOTBuilder13OptLengthSpecE
libostyle.so.0:_ZN14OpenJade_DSSSL11Interpreter21installCharPropertiesEv
libostyle.so.0:_ZN14OpenJade_DSSSL11Interpreter21installInheritedCProcEPKNS_10IdentifierE
libostyle.so.0:_ZN14OpenJade_DSSSL11Interpreter21installNodePropertiesEv
libostyle.so.0:_ZN14OpenJade_DSSSL11Interpreter22compileDefaultLanguageEv
libostyle.so.0:_ZN14OpenJade_DSSSL11Interpreter22convertUnicodeCharNameERKN6OpenSP6StringIjEERj
libostyle.so.0:_ZN14OpenJade_DSSSL11Interpreter23installExtensionCharNICEPNS_10IdentifierERKN6OpenSP6StringIjEERKNS3_8LocationE
libostyle.so.0:_ZN14OpenJade_DSSSL11Interpreter26convertOptPositiveIntegerCEPNS_5ELObjEPKNS_10IdentifierERKN6OpenSP8LocationERl
libostyle.so.0:_ZN14OpenJade_DSSSL11Interpreter26installExtensionInheritedCEPNS_10IdentifierERKN6OpenSP6StringIjEERKNS3_8LocationE
libostyle.so.0:_ZN14OpenJade_DSSSL11Interpreter26invalidCharacteristicValueEPKNS_10IdentifierERKN6OpenSP8LocationE
libostyle.so.0:_ZN14OpenJade_DSSSL11Interpreter29patternAddAttributeQualifiersEPNS_5ELObjERKN6OpenSP8LocationERNS_7Pattern7ElementE
libostyle.so.0:_ZN14OpenJade_DSSSL11Interpreter31installExtensionFlowObjectClassEPNS_10IdentifierERKN6OpenSP6StringIjEERKNS3_8LocationE
libostyle.so.0:_ZN14OpenJade_DSSSL11Interpreter6lookupERKN6OpenSP6StringIjEE
libostyle.so.0:_ZN14OpenJade_DSSSL11Interpreter7compileEv
libostyle.so.0:_ZN14OpenJade_DSSSL11Interpreter7endPartEv
libostyle.so.0:_ZN14OpenJade_DSSSL11Interpreter8dEndPartEv
libostyle.so.0:_ZN14OpenJade_DSSSL11Interpreter8scanUnitERKN6OpenSP6StringIjEEmRi
libostyle.so.0:_ZN14OpenJade_DSSSL11Interpreter9StringSet4hashERKN6OpenSP6StringIcEE
libostyle.so.0:_ZN14OpenJade_DSSSL11Interpreter9StringSet5storeERN6OpenSP6StringIcEE
libostyle.so.0:_ZN14OpenJade_DSSSL11Interpreter9StringSetC1Ev
libostyle.so.0:_ZN14OpenJade_DSSSL11Interpreter9StringSetC2Ev
libostyle.so.0:_ZN14OpenJade_DSSSL11InterpreterC1EPNS_12GroveManagerEPN6OpenSP9MessengerEibbbPKNS_10FOTBuilder9ExtensionE
libostyle.so.0:_ZN14OpenJade_DSSSL11InterpreterC2EPNS_12GroveManagerEPN6OpenSP9MessengerEibbbPKNS_10FOTBuilder9ExtensionE
libostyle.so.0:_ZN14OpenJade_DSSSL11LinkFlowObj12processInnerERNS_14ProcessContextE
libostyle.so.0:_ZN14OpenJade_DSSSL11LinkFlowObj16setNonInheritedCEPKNS_10IdentifierEPNS_5ELObjERKN6OpenSP8LocationERNS_11InterpreterE
libostyle.so.0:_ZN14OpenJade_DSSSL11LinkFlowObjC1Ev
libostyle.so.0:_ZN14OpenJade_DSSSL11LinkFlowObjC2Ev
libostyle.so.0:_ZN14OpenJade_DSSSL11MarkFlowObj12processInnerERNS_14ProcessContextE
libostyle.so.0:_ZN14OpenJade_DSSSL11NodeListObj10asNodeListEv
libostyle.so.0:_ZN14OpenJade_DSSSL11NodeListObj11nodeListRefElRNS_11EvalContextERNS_11InterpreterE
libostyle.so.0:_ZN14OpenJade_DSSSL11NodeListObj13suppressErrorEv
libostyle.so.0:_ZN14OpenJade_DSSSL11NodeListObj14nodeListLengthERNS_11EvalContextERNS_11InterpreterE
libostyle.so.0:_ZN14OpenJade_DSSSL11NodeListObj15nodeListNoOrderER9Collector
libostyle.so.0:_ZN14OpenJade_DSSSL11NodeListObj15nodeListReverseERNS_11EvalContextERNS_11InterpreterE
libostyle.so.0:_ZN14OpenJade_DSSSL11NodeListObj17nodeListChunkRestERNS_11EvalContextERNS_11InterpreterERb
libostyle.so.0:_ZN14OpenJade_DSSSL11NodeListObj20optSingletonNodeListERNS_11EvalContextERNS_11InterpreterERN14OpenJade_Grove7NodePtrE
libostyle.so.0:_ZN14OpenJade_DSSSL11NumberCache11childNumberERKN14OpenJade_Grove7NodePtrERm
libostyle.so.0:_ZN14OpenJade_DSSSL11NumberCache12ElementEntryC1ERKN6OpenSP6StringIjEE
libostyle.so.0:_ZN14OpenJade_DSSSL11NumberCache12ElementEntryC2ERKN6OpenSP6StringIjEE
libostyle.so.0:_ZN14OpenJade_DSSSL11NumberCache13elementNumberERKN14OpenJade_Grove7NodePtrERKN6OpenSP6StringIjEE
libostyle.so.0:_ZN14OpenJade_DSSSL11NumberCache18elementNumberAfterERKN14OpenJade_Grove7NodePtrERKN6OpenSP6StringIjEES9_
libostyle.so.0:_ZN14OpenJade_DSSSL11NumberCache5EntryC1ERKN6OpenSP6StringIjEE
libostyle.so.0:_ZN14OpenJade_DSSSL11NumberCache5EntryC2ERKN6OpenSP6StringIjEE
libostyle.so.0:_ZN14OpenJade_DSSSL11NumberCacheC1Ev
libostyle.so.0:_ZN14OpenJade_DSSSL11NumberCacheC2Ev
libostyle.so.0:_ZN14OpenJade_DSSSL11QuantityObj13quantityValueERlRdRi
libostyle.so.0:_ZN14OpenJade_DSSSL11QuantityObj16inexactRealValueERd
libostyle.so.0:_ZN14OpenJade_DSSSL11QuantityObj5printERNS_11InterpreterERN6OpenSP16OutputCharStreamE
libostyle.so.0:_ZN14OpenJade_DSSSL11QuantityObj7isEqualERNS_5ELObjE
libostyle.so.0:_ZN14OpenJade_DSSSL11QuantityObj9realValueERd
libostyle.so.0:_ZN14OpenJade_DSSSL11QuantityObjC1Edi
libostyle.so.0:_ZN14OpenJade_DSSSL11QuantityObjC2Edi
libostyle.so.0:_ZN14OpenJade_DSSSL11RuleFlowObj12processInnerERNS_14ProcessContextE
libostyle.so.0:_ZN14OpenJade_DSSSL11RuleFlowObj16setNonInheritedCEPKNS_10IdentifierEPNS_5ELObjERKN6OpenSP8LocationERNS_11InterpreterE
libostyle.so.0:_ZN14OpenJade_DSSSL11RuleFlowObjC1ERKS0_
libostyle.so.0:_ZN14OpenJade_DSSSL11RuleFlowObjC1Ev
libostyle.so.0:_ZN14OpenJade_DSSSL11RuleFlowObjC2ERKS0_
libostyle.so.0:_ZN14OpenJade_DSSSL11RuleFlowObjC2Ev
libostyle.so.0:_ZN14OpenJade_DSSSL11StyleEngine14defineVariableERKN6OpenSP6StringIjEE
libostyle.so.0:_ZN14OpenJade_DSSSL11StyleEngine7processERKN14OpenJade_Grove7NodePtrERNS_10FOTBuilderE
libostyle.so.0:_ZN14OpenJade_DSSSL11StyleEngine9parseSpecERN6OpenSP10SgmlParserERKNS1_11CharsetInfoERKNS1_6StringIjEERNS1_9MessengerE
libostyle.so.0:_ZN14OpenJade_DSSSL11StyleEngineC1ERN6OpenSP9MessengerERNS_12GroveManagerEibbbPKNS_10FOTBuilder9ExtensionE
libostyle.so.0:_ZN14OpenJade_DSSSL11StyleEngineC2ERN6OpenSP9MessengerERNS_12GroveManagerEibbbPKNS_10FOTBuilder9ExtensionE
libostyle.so.0:_ZN14OpenJade_DSSSL11StyleEngineD1Ev
libostyle.so.0:_ZN14OpenJade_DSSSL11StyleEngineD2Ev
libostyle.so.0:_ZN14OpenJade_DSSSL11VarStyleObjC1ERKN6OpenSP8ConstPtrINS_9StyleSpecEEEPNS_8StyleObjEPPNS_5ELObjERKN14OpenJade_Grove7NodePtrE
libostyle.so.0:_ZN14OpenJade_DSSSL11VarStyleObjC2ERKN6OpenSP8ConstPtrINS_9StyleSpecEEEPNS_8StyleObjEPPNS_5ELObjERKN14OpenJade_Grove7NodePtrE
libostyle.so.0:_ZN14OpenJade_DSSSL11VarStyleObjD0Ev
libostyle.so.0:_ZN14OpenJade_DSSSL11VarStyleObjD1Ev
libostyle.so.0:_ZN14OpenJade_DSSSL11VarStyleObjD2Ev
libostyle.so.0:_ZN14OpenJade_DSSSL11VarargsInsnC1ERKNS_9SignatureERN6OpenSP6VectorINS4_8ConstPtrINS_4InsnEEEEERKNS4_8LocationE
libostyle.so.0:_ZN14OpenJade_DSSSL11VarargsInsnC2ERKNS_9SignatureERN6OpenSP6VectorINS4_8ConstPtrINS_4InsnEEEEERKNS4_8LocationE
libostyle.so.0:_ZN14OpenJade_DSSSL12BoundVarList12removeUnusedEv
libostyle.so.0:_ZN14OpenJade_DSSSL12BoundVarList4findEPKNS_10IdentifierE
libostyle.so.0:_ZN14OpenJade_DSSSL12BoundVarList4markEPKNS_10IdentifierEj
libostyle.so.0:_ZN14OpenJade_DSSSL12BoundVarList6appendEPKNS_10IdentifierEj
libostyle.so.0:_ZN14OpenJade_DSSSL12BoundVarList6rebindERKN6OpenSP6VectorIPKNS_10IdentifierEEE
libostyle.so.0:_ZN14OpenJade_DSSSL12BoundVarList6removeERKN6OpenSP6VectorIPKNS_10IdentifierEEE
libostyle.so.0:_ZN14OpenJade_DSSSL12BoundVarList6unbindERKN6OpenSP6VectorIPKNS_10IdentifierEEE
libostyle.so.0:_ZN14OpenJade_DSSSL12BoundVarListC1ERKN6OpenSP6VectorIPKNS_10IdentifierEEE
libostyle.so.0:_ZN14OpenJade_DSSSL12BoundVarListC1ERKN6OpenSP6VectorIPKNS_10IdentifierEEEmj
libostyle.so.0:_ZN14OpenJade_DSSSL12BoundVarListC2ERKN6OpenSP6VectorIPKNS_10IdentifierEEE
libostyle.so.0:_ZN14OpenJade_DSSSL12BoundVarListC2ERKN6OpenSP6VectorIPKNS_10IdentifierEEEmj
libostyle.so.0:_ZN14OpenJade_DSSSL12BoxStackInsnC1EiN6OpenSP8ConstPtrINS_4InsnEEE
libostyle.so.0:_ZN14OpenJade_DSSSL12BoxStackInsnC2EiN6OpenSP8ConstPtrINS_4InsnEEE
libostyle.so.0:_ZN14OpenJade_DSSSL12CaseFailInsnC1ERKN6OpenSP8LocationE
libostyle.so.0:_ZN14OpenJade_DSSSL12CaseFailInsnC2ERKN6OpenSP8LocationE
libostyle.so.0:_ZN14OpenJade_DSSSL12CondFailInsnC1ERKN6OpenSP8LocationE
libostyle.so.0:_ZN14OpenJade_DSSSL12CondFailInsnC2ERKN6OpenSP8LocationE
libostyle.so.0:_ZN14OpenJade_DSSSL12ConstantInsnC1EPNS_5ELObjEN6OpenSP8ConstPtrINS_4InsnEEE
libostyle.so.0:_ZN14OpenJade_DSSSL12ConstantInsnC2EPNS_5ELObjEN6OpenSP8ConstPtrINS_4InsnEEE
libostyle.so.0:_ZN14OpenJade_DSSSL12FenceFlowObj12processInnerERNS_14ProcessContextE
libostyle.so.0:_ZN14OpenJade_DSSSL12FrameRefInsnC1EiN6OpenSP8ConstPtrINS_4InsnEEE
libostyle.so.0:_ZN14OpenJade_DSSSL12FrameRefInsnC2EiN6OpenSP8ConstPtrINS_4InsnEEE
libostyle.so.0:_ZN14OpenJade_DSSSL12GroveManagerD0Ev
libostyle.so.0:_ZN14OpenJade_DSSSL12GroveManagerD1Ev
libostyle.so.0:_ZN14OpenJade_DSSSL12GroveManagerD2Ev
libostyle.so.0:_ZN14OpenJade_DSSSL12IfExpression13markBoundVarsERNS_12BoundVarListEb
libostyle.so.0:_ZN14OpenJade_DSSSL12IfExpression7compileERNS_11InterpreterERKNS_11EnvironmentEiRKN6OpenSP8ConstPtrINS_4InsnEEE
libostyle.so.0:_ZN14OpenJade_DSSSL12IfExpression8optimizeERNS_11InterpreterERKNS_11EnvironmentERN6OpenSP5OwnerINS_10ExpressionEEE
libostyle.so.0:_ZN14OpenJade_DSSSL12IfExpressionC1ERN6OpenSP5OwnerINS_10ExpressionEEES5_S5_RKNS1_8LocationE
libostyle.so.0:_ZN14OpenJade_DSSSL12IfExpressionC2ERN6OpenSP5OwnerINS_10ExpressionEEES5_S5_RKNS1_8LocationE
libostyle.so.0:_ZN14OpenJade_DSSSL12MacroFlowObj10Definition7compileERNS_11InterpreterE
libostyle.so.0:_ZN14OpenJade_DSSSL12MacroFlowObj10Definition7processERNS_14ProcessContextEPS0_
libostyle.so.0:_ZN14OpenJade_DSSSL12MacroFlowObj10DefinitionC1ERN6OpenSP6VectorIPKNS_10IdentifierEEERNS2_8NCVectorINS2_5OwnerINS_10ExpressionEEEEES6_RSC_
libostyle.so.0:_ZN14OpenJade_DSSSL12MacroFlowObj10DefinitionC2ERN6OpenSP6VectorIPKNS_10IdentifierEEERNS2_8NCVectorINS2_5OwnerINS_10ExpressionEEEEES6_RSC_
libostyle.so.0:_ZN14OpenJade_DSSSL12MacroFlowObj12processInnerERNS_14ProcessContextE
libostyle.so.0:_ZN14OpenJade_DSSSL12MacroFlowObj16setNonInheritedCEPKNS_10IdentifierEPNS_5ELObjERKN6OpenSP8LocationERNS_11InterpreterE
libostyle.so.0:_ZN14OpenJade_DSSSL12MacroFlowObj17asCompoundFlowObjEv
libostyle.so.0:_ZN14OpenJade_DSSSL12MacroFlowObj6unpackERNS_2VME
libostyle.so.0:_ZN14OpenJade_DSSSL12MacroFlowObjC1ERKS0_
libostyle.so.0:_ZN14OpenJade_DSSSL12MacroFlowObjC1ERN6OpenSP6VectorIPKNS_10IdentifierEEERNS1_8NCVectorINS1_5OwnerINS_10ExpressionEEEEES5_RSB_
libostyle.so.0:_ZN14OpenJade_DSSSL12MacroFlowObjC2ERKS0_
libostyle.so.0:_ZN14OpenJade_DSSSL12MacroFlowObjC2ERN6OpenSP6VectorIPKNS_10IdentifierEEERNS1_8NCVectorINS1_5OwnerINS_10ExpressionEEEEES5_RSB_
libostyle.so.0:_ZN14OpenJade_DSSSL12MacroFlowObjD0Ev
libostyle.so.0:_ZN14OpenJade_DSSSL12MacroFlowObjD1Ev
libostyle.so.0:_ZN14OpenJade_DSSSL12MacroFlowObjD2Ev
libostyle.so.0:_ZN14OpenJade_DSSSL12OrExpression13markBoundVarsERNS_12BoundVarListEb
libostyle.so.0:_ZN14OpenJade_DSSSL12OrExpression7compileERNS_11InterpreterERKNS_11EnvironmentEiRKN6OpenSP8ConstPtrINS_4InsnEEE
libostyle.so.0:_ZN14OpenJade_DSSSL12OrExpression8optimizeERNS_11InterpreterERKNS_11EnvironmentERN6OpenSP5OwnerINS_10ExpressionEEE
libostyle.so.0:_ZN14OpenJade_DSSSL12OrExpressionC1ERN6OpenSP5OwnerINS_10ExpressionEEES5_RKNS1_8LocationE
libostyle.so.0:_ZN14OpenJade_DSSSL12OrExpressionC2ERN6OpenSP5OwnerINS_10ExpressionEEES5_RKNS1_8LocationE
libostyle.so.0:_ZN14OpenJade_DSSSL12PrimitiveObj12makeCallInsnEiRNS_11InterpreterERKN6OpenSP8LocationENS3_8ConstPtrINS_4InsnEEE
libostyle.so.0:_ZN14OpenJade_DSSSL12PrimitiveObj4callERNS_2VMERKN6OpenSP8LocationEPKNS_4InsnE
libostyle.so.0:_ZN14OpenJade_DSSSL12PrimitiveObj8tailCallERNS_2VMERKN6OpenSP8LocationEi
libostyle.so.0:_ZN14OpenJade_DSSSL12SchemeParser10parseBeginERN6OpenSP5OwnerINS_10ExpressionEEE
libostyle.so.0:_ZN14OpenJade_DSSSL12SchemeParser10parseDatumEjRPNS_5ELObjERN6OpenSP8LocationERNS0_5TokenE
libostyle.so.0:_ZN14OpenJade_DSSSL12SchemeParser10parseQuoteERN6OpenSP5OwnerINS_10ExpressionEEE
libostyle.so.0:_ZN14OpenJade_DSSSL12SchemeParser10parseStyleERN6OpenSP5OwnerINS_10ExpressionEEE
libostyle.so.0:_ZN14OpenJade_DSSSL12SchemeParser10scanStringEjRNS0_5TokenE
libostyle.so.0:_ZN14OpenJade_DSSSL12SchemeParser11doOrElementEv
libostyle.so.0:_ZN14OpenJade_DSSSL12SchemeParser11extendTokenEv
libostyle.so.0:_ZN14OpenJade_DSSSL12SchemeParser11initMessageERN6OpenSP7MessageE
libostyle.so.0:_ZN14OpenJade_DSSSL12SchemeParser11parseLambdaERN6OpenSP5OwnerINS_10ExpressionEEE
libostyle.so.0:_ZN14OpenJade_DSSSL12SchemeParser11parseLetrecERN6OpenSP5OwnerINS_10ExpressionEEE
libostyle.so.0:_ZN14OpenJade_DSSSL12SchemeParser11skipCommentEv
libostyle.so.0:_ZN14OpenJade_DSSSL12SchemeParser12doDefineUnitEv
libostyle.so.0:_ZN14OpenJade_DSSSL12SchemeParser12handleNumberEjRNS0_5TokenE
libostyle.so.0:_ZN14OpenJade_DSSSL12SchemeParser12parseFormalsERN6OpenSP6VectorIPKNS_10IdentifierEEERNS1_8NCVectorINS1_5OwnerINS_10ExpressionEEEEERiRbSE_
libostyle.so.0:_ZN14OpenJade_DSSSL12SchemeParser12parseLetStarERN6OpenSP5OwnerINS_10ExpressionEEE
libostyle.so.0:_ZN14OpenJade_DSSSL12SchemeParser12tokenRecoverEjRNS0_5TokenE
libostyle.so.0:_ZN14OpenJade_DSSSL12SchemeParser13parseRuleBodyERN6OpenSP5OwnerINS_10ExpressionEEERNS_14ProcessingMode8RuleTypeE
libostyle.so.0:_ZN14OpenJade_DSSSL12SchemeParser13parseWithModeERN6OpenSP5OwnerINS_10ExpressionEEE
libostyle.so.0:_ZN14OpenJade_DSSSL12SchemeParser14parseNameCharsEv
libostyle.so.0:_ZN14OpenJade_DSSSL12SchemeParser15dispatchMessageERKN6OpenSP7MessageE
libostyle.so.0:_ZN14OpenJade_DSSSL12SchemeParser15dispatchMessageERN6OpenSP7MessageE
libostyle.so.0:_ZN14OpenJade_DSSSL12SchemeParser15parseExpressionERN6OpenSP5OwnerINS_10ExpressionEEE
libostyle.so.0:_ZN14OpenJade_DSSSL12SchemeParser15parseExpressionEjRN6OpenSP5OwnerINS_10ExpressionEEERNS_10Identifier12SyntacticKeyERNS0_5TokenE
libostyle.so.0:_ZN14OpenJade_DSSSL12SchemeParser15parseQuasiquoteERN6OpenSP5OwnerINS_10ExpressionEEE
libostyle.so.0:_ZN14OpenJade_DSSSL12SchemeParser16doCollatingOrderEv
libostyle.so.0:_ZN14OpenJade_DSSSL12SchemeParser16doDefineLanguageEv
libostyle.so.0:_ZN14OpenJade_DSSSL12SchemeParser16handleIdentifierEjRNS0_5TokenE
libostyle.so.0:_ZN14OpenJade_DSSSL12SchemeParser17doCollatingSymbolEv
libostyle.so.0:_ZN14OpenJade_DSSSL12SchemeParser17parseAbbreviationEPKcRPNS_5ELObjE
libostyle.so.0:_ZN14OpenJade_DSSSL12SchemeParser17parseSpecialQueryERN6OpenSP5OwnerINS_10ExpressionEEEPKc
libostyle.so.0:_ZN14OpenJade_DSSSL12SchemeParser18convertAfiiGlyphIdERKN6OpenSP6StringIjEE
libostyle.so.0:_ZN14OpenJade_DSSSL12SchemeParser18parseStandardCharsEv
libostyle.so.0:_ZN14OpenJade_DSSSL12SchemeParser19doAddCharPropertiesEv
libostyle.so.0:_ZN14OpenJade_DSSSL12SchemeParser19parseMapSdataEntityERKN6OpenSP6StringIjEES5_
libostyle.so.0:_ZN14OpenJade_DSSSL12SchemeParser19parseSelfEvaluatingEjRPNS_5ELObjERNS0_5TokenE
libostyle.so.0:_ZN14OpenJade_DSSSL12SchemeParser19parseSeparatorCharsEv
libostyle.so.0:_ZN14OpenJade_DSSSL12SchemeParser20doDeclareIdAttributeEv
libostyle.so.0:_ZN14OpenJade_DSSSL12SchemeParser20parseBindingsAndBodyERN6OpenSP6VectorIPKNS_10IdentifierEEERNS1_8NCVectorINS1_5OwnerINS_10ExpressionEEEEERSB_
libostyle.so.0:_ZN14OpenJade_DSSSL12SchemeParser21doDeclareCharPropertyEv
libostyle.so.0:_ZN14OpenJade_DSSSL12SchemeParser21doDeclareInitialValueEv
libostyle.so.0:_ZN14OpenJade_DSSSL12SchemeParser21parseBindingsAndBody1ERN6OpenSP6VectorIPKNS_10IdentifierEEERNS1_8NCVectorINS1_5OwnerINS_10ExpressionEEEEERSB_
libostyle.so.0:_ZN14OpenJade_DSSSL12SchemeParser23doDeclareCharacteristicEv
libostyle.so.0:_ZN14OpenJade_DSSSL12SchemeParser23doDeclareClassAttributeEv
libostyle.so.0:_ZN14OpenJade_DSSSL12SchemeParser23doMultiCollatingElementEv
libostyle.so.0:_ZN14OpenJade_DSSSL12SchemeParser23parseQuasiquoteTemplateEjjRN6OpenSP5OwnerINS_10ExpressionEEERNS_10Identifier12SyntacticKeyERNS0_5TokenERb
libostyle.so.0:_ZN14OpenJade_DSSSL12SchemeParser24doDeclareDefaultLanguageEv
libostyle.so.0:_ZN14OpenJade_DSSSL12SchemeParser24doDeclareFlowObjectClassEv
libostyle.so.0:_ZN14OpenJade_DSSSL12SchemeParser24doDeclareFlowObjectMacroEv
libostyle.so.0:_ZN14OpenJade_DSSSL12SchemeParser28createQuasiquoteAbbreviationEPKcRN6OpenSP5OwnerINS_10ExpressionEEE
libostyle.so.0:_ZN14OpenJade_DSSSL12SchemeParser38doDeclareCharCharacteristicAndPropertyEv
libostyle.so.0:_ZN14OpenJade_DSSSL12SchemeParser4doIdEv
libostyle.so.0:_ZN14OpenJade_DSSSL12SchemeParser5parseEv
libostyle.so.0:_ZN14OpenJade_DSSSL12SchemeParser6doModeEv
libostyle.so.0:_ZN14OpenJade_DSSSL12SchemeParser6doRootEv
libostyle.so.0:_ZN14OpenJade_DSSSL12SchemeParser7parseIfERN6OpenSP5OwnerINS_10ExpressionEEE
libostyle.so.0:_ZN14OpenJade_DSSSL12SchemeParser7parseOrERN6OpenSP5OwnerINS_10ExpressionEEE
libostyle.so.0:_ZN14OpenJade_DSSSL12SchemeParser8doDefineEv
libostyle.so.0:_ZN14OpenJade_DSSSL12SchemeParser8getTokenEjRNS0_5TokenE
libostyle.so.0:_ZN14OpenJade_DSSSL12SchemeParser8parseAndERN6OpenSP5OwnerINS_10ExpressionEEEb
libostyle.so.0:_ZN14OpenJade_DSSSL12SchemeParser8parseLetERN6OpenSP5OwnerINS_10ExpressionEEE
libostyle.so.0:_ZN14OpenJade_DSSSL12SchemeParser8parseSetERN6OpenSP5OwnerINS_10ExpressionEEE
libostyle.so.0:_ZN14OpenJade_DSSSL12SchemeParser8skipFormEv
libostyle.so.0:_ZN14OpenJade_DSSSL12SchemeParser9doCollateEv
libostyle.so.0:_ZN14OpenJade_DSSSL12SchemeParser9doDefaultEv
libostyle.so.0:_ZN14OpenJade_DSSSL12SchemeParser9doElementEv
libostyle.so.0:_ZN14OpenJade_DSSSL12SchemeParser9doTolowerEv
libostyle.so.0:_ZN14OpenJade_DSSSL12SchemeParser9doToupperEv
libostyle.so.0:_ZN14OpenJade_DSSSL12SchemeParser9doWeightsEv
libostyle.so.0:_ZN14OpenJade_DSSSL12SchemeParser9parseCaseERN6OpenSP5OwnerINS_10ExpressionEEE
libostyle.so.0:_ZN14OpenJade_DSSSL12SchemeParser9parseCondERN6OpenSP5OwnerINS_10ExpressionEEEb
libostyle.so.0:_ZN14OpenJade_DSSSL12SchemeParser9parseMakeERN6OpenSP5OwnerINS_10ExpressionEEE
libostyle.so.0:_ZN14OpenJade_DSSSL12SchemeParserC1ERNS_11InterpreterERN6OpenSP5OwnerINS3_11InputSourceEEE
libostyle.so.0:_ZN14OpenJade_DSSSL12SchemeParserC2ERNS_11InterpreterERN6OpenSP5OwnerINS3_11InputSourceEEE
libostyle.so.0:_ZN14OpenJade_DSSSL12ScoreFlowObj10SymbolType5startERNS_10FOTBuilderE
libostyle.so.0:_ZN14OpenJade_DSSSL12ScoreFlowObj12processInnerERNS_14ProcessContextE
libostyle.so.0:_ZN14OpenJade_DSSSL12ScoreFlowObj14LengthSpecType5startERNS_10FOTBuilderE
libostyle.so.0:_ZN14OpenJade_DSSSL12ScoreFlowObj16setNonInheritedCEPKNS_10IdentifierEPNS_5ELObjERKN6OpenSP8LocationERNS_11InterpreterE
libostyle.so.0:_ZN14OpenJade_DSSSL12ScoreFlowObj4TypeD0Ev
libostyle.so.0:_ZN14OpenJade_DSSSL12ScoreFlowObj4TypeD1Ev
libostyle.so.0:_ZN14OpenJade_DSSSL12ScoreFlowObj4TypeD2Ev
libostyle.so.0:_ZN14OpenJade_DSSSL12ScoreFlowObj8CharType5startERNS_10FOTBuilderE
libostyle.so.0:_ZN14OpenJade_DSSSL12ScoreFlowObjC1Ev
libostyle.so.0:_ZN14OpenJade_DSSSL12ScoreFlowObjC2Ev
libostyle.so.0:_ZN14OpenJade_DSSSL12SetStyleInsnC1EN6OpenSP8ConstPtrINS_4InsnEEE
libostyle.so.0:_ZN14OpenJade_DSSSL12SetStyleInsnC2EN6OpenSP8ConstPtrINS_4InsnEEE
libostyle.so.0:_ZN14OpenJade_DSSSL12StackRefInsnC1EiiN6OpenSP8ConstPtrINS_4InsnEEE
libostyle.so.0:_ZN14OpenJade_DSSSL12StackRefInsnC2EiiN6OpenSP8ConstPtrINS_4InsnEEE
libostyle.so.0:_ZN14OpenJade_DSSSL12StackSetInsnC1EiiN6OpenSP8ConstPtrINS_4InsnEEE
libostyle.so.0:_ZN14OpenJade_DSSSL12StackSetInsnC2EiiN6OpenSP8ConstPtrINS_4InsnEEE
libostyle.so.0:_ZN14OpenJade_DSSSL12StyleObjIter4nextERPKNS_11VarStyleObjE
libostyle.so.0:_ZN14OpenJade_DSSSL12StyleObjIter6appendEPKN6OpenSP6VectorINS1_8ConstPtrINS_10InheritedCEEEEEPKNS_11VarStyleObjE
libostyle.so.0:_ZN14OpenJade_DSSSL12StyleObjIterC1Ev
libostyle.so.0:_ZN14OpenJade_DSSSL12StyleObjIterC2Ev
libostyle.so.0:_ZN14OpenJade_DSSSL12TestNullInsnC1EiN6OpenSP8ConstPtrINS_4InsnEEES4_
libostyle.so.0:_ZN14OpenJade_DSSSL12TestNullInsnC2EiN6OpenSP8ConstPtrINS_4InsnEEES4_
libostyle.so.0:_ZN14OpenJade_DSSSL12VarStyleInsnC1ERKN6OpenSP8ConstPtrINS_9StyleSpecEEEjbNS2_INS_4InsnEEE
libostyle.so.0:_ZN14OpenJade_DSSSL12VarStyleInsnC2ERKN6OpenSP8ConstPtrINS_9StyleSpecEEEjbNS2_INS_4InsnEEE
libostyle.so.0:_ZN14OpenJade_DSSSL13ApplyBaseInsnC1EiRKN6OpenSP8LocationE
libostyle.so.0:_ZN14OpenJade_DSSSL13ApplyBaseInsnC2EiRKN6OpenSP8LocationE
libostyle.so.0:_ZN14OpenJade_DSSSL13CheckInitInsnC1EPKNS_10IdentifierERKN6OpenSP8LocationENS4_8ConstPtrINS_4InsnEEE
libostyle.so.0:_ZN14OpenJade_DSSSL13CheckInitInsnC2EPKNS_10IdentifierERKN6OpenSP8LocationENS4_8ConstPtrINS_4InsnEEE
libostyle.so.0:_ZN14OpenJade_DSSSL13ColorSpaceObj12asColorSpaceEv
libostyle.so.0:_ZN14OpenJade_DSSSL13LeaderFlowObj12processInnerERNS_14ProcessContextE
libostyle.so.0:_ZN14OpenJade_DSSSL13LeaderFlowObj16setNonInheritedCEPKNS_10IdentifierEPNS_5ELObjERKN6OpenSP8LocationERNS_11InterpreterE
libostyle.so.0:_ZN14OpenJade_DSSSL13LeaderFlowObjC1ERKS0_
libostyle.so.0:_ZN14OpenJade_DSSSL13LeaderFlowObjC1Ev
libostyle.so.0:_ZN14OpenJade_DSSSL13LeaderFlowObjC2ERKS0_
libostyle.so.0:_ZN14OpenJade_DSSSL13LeaderFlowObjC2Ev
libostyle.so.0:_ZN14OpenJade_DSSSL13LengthSpecObjC1ERKNS_10LengthSpecE
libostyle.so.0:_ZN14OpenJade_DSSSL13LengthSpecObjC2ERKNS_10LengthSpecE
libostyle.so.0:_ZN14OpenJade_DSSSL13LetExpression12compileInitsERNS_11InterpreterERKNS_11EnvironmentERKNS_12BoundVarListEmiRKN6OpenSP8ConstPtrINS_4InsnEEE
libostyle.so.0:_ZN14OpenJade_DSSSL13LetExpression13markBoundVarsERNS_12BoundVarListEb
libostyle.so.0:_ZN14OpenJade_DSSSL13LetExpression7compileERNS_11InterpreterERKNS_11EnvironmentEiRKN6OpenSP8ConstPtrINS_4InsnEEE
libostyle.so.0:_ZN14OpenJade_DSSSL13LetExpressionC1ERN6OpenSP6VectorIPKNS_10IdentifierEEERNS1_8NCVectorINS1_5OwnerINS_10ExpressionEEEEERSB_RKNS1_8LocationE
libostyle.so.0:_ZN14OpenJade_DSSSL13LetExpressionC2ERN6OpenSP6VectorIPKNS_10IdentifierEEERNS1_8NCVectorINS1_5OwnerINS_10ExpressionEEEEERSB_RKNS1_8LocationE
libostyle.so.0:_ZN14OpenJade_DSSSL13MergeStyleObj6appendEPNS_8StyleObjE
libostyle.so.0:_ZN14OpenJade_DSSSL13MergeStyleObjC1Ev
libostyle.so.0:_ZN14OpenJade_DSSSL13MergeStyleObjC2Ev
libostyle.so.0:_ZN14OpenJade_DSSSL13ScriptFlowObj12processInnerERNS_14ProcessContextE
libostyle.so.0:_ZN14OpenJade_DSSSL13ScrollFlowObj12processInnerERNS_14ProcessContextE
libostyle.so.0:_ZN14OpenJade_DSSSL13SetKeyArgInsnC1EiN6OpenSP8ConstPtrINS_4InsnEEE
libostyle.so.0:_ZN14OpenJade_DSSSL13SetKeyArgInsnC2EiN6OpenSP8ConstPtrINS_4InsnEEE
libostyle.so.0:_ZN14OpenJade_DSSSL13StartMarkCall4emitERNS_10FOTBuilderE
libostyle.so.0:_ZN14OpenJade_DSSSL13StartMarkCallC1ERPNS_10FOTBuilderES3_
libostyle.so.0:_ZN14OpenJade_DSSSL13StartMarkCallC2ERPNS_10FOTBuilderES3_
libostyle.so.0:_ZN14OpenJade_DSSSL13TailApplyInsnC1EiiRKN6OpenSP8LocationE
libostyle.so.0:_ZN14OpenJade_DSSSL13TailApplyInsnC2EiiRKN6OpenSP8LocationE
libostyle.so.0:_ZN14OpenJade_DSSSL13VarInheritedCC1ERKN6OpenSP8ConstPtrINS_10InheritedCEEERKNS2_INS_4InsnEEERKNS1_8LocationE
libostyle.so.0:_ZN14OpenJade_DSSSL13VarInheritedCC2ERKN6OpenSP8ConstPtrINS_10InheritedCEEERKNS2_INS_4InsnEEERKNS1_8LocationE
libostyle.so.0:_ZN14OpenJade_DSSSL14BoolInheritedCC1EPKNS_10IdentifierEjb
libostyle.so.0:_ZN14OpenJade_DSSSL14BoolInheritedCC2EPKNS_10IdentifierEjb
libostyle.so.0:_ZN14OpenJade_DSSSL14CallExpression13markBoundVarsERNS_12BoundVarListEb
libostyle.so.0:_ZN14OpenJade_DSSSL14CallExpression5nArgsEv
libostyle.so.0:_ZN14OpenJade_DSSSL14CallExpression7compileERNS_11InterpreterERKNS_11EnvironmentEiRKN6OpenSP8ConstPtrINS_4InsnEEE
libostyle.so.0:_ZN14OpenJade_DSSSL14CallExpressionC1ERN6OpenSP5OwnerINS_10ExpressionEEERNS1_8NCVectorIS4_EERKNS1_8LocationE
libostyle.so.0:_ZN14OpenJade_DSSSL14CallExpressionC2ERN6OpenSP5OwnerINS_10ExpressionEEERNS1_8NCVectorIS4_EERKNS1_8LocationE
libostyle.so.0:_ZN14OpenJade_DSSSL14CaseExpression13markBoundVarsERNS_12BoundVarListEb
libostyle.so.0:_ZN14OpenJade_DSSSL14CaseExpression7compileERNS_11InterpreterERKNS_11EnvironmentEiRKN6OpenSP8ConstPtrINS_4InsnEEE
libostyle.so.0:_ZN14OpenJade_DSSSL14CaseExpression8optimizeERNS_11InterpreterERKNS_11EnvironmentERN6OpenSP5OwnerINS_10ExpressionEEE
libostyle.so.0:_ZN14OpenJade_DSSSL14CaseExpressionC1ERN6OpenSP5OwnerINS_10ExpressionEEERNS1_8NCVectorINS0_4CaseEEES5_RKNS1_8LocationE
libostyle.so.0:_ZN14OpenJade_DSSSL14CaseExpressionC2ERN6OpenSP5OwnerINS_10ExpressionEEERNS1_8NCVectorINS0_4CaseEEES5_RKNS1_8LocationE
libostyle.so.0:_ZN14OpenJade_DSSSL14ClosureRefInsnC1EiN6OpenSP8ConstPtrINS_4InsnEEE
libostyle.so.0:_ZN14OpenJade_DSSSL14ClosureRefInsnC2EiN6OpenSP8ConstPtrINS_4InsnEEE
libostyle.so.0:_ZN14OpenJade_DSSSL14EmptySosofoObj7processERNS_14ProcessContextE
libostyle.so.0:_ZN14OpenJade_DSSSL14GiPrimitiveObj13primitiveCallEiPPNS_5ELObjERNS_11EvalContextERNS_11InterpreterERKN6OpenSP8LocationE
libostyle.so.0:_ZN14OpenJade_DSSSL14IdPrimitiveObj13primitiveCallEiPPNS_5ELObjERNS_11EvalContextERNS_11InterpreterERKN6OpenSP8LocationE
libostyle.so.0:_ZN14OpenJade_DSSSL14InheritedCInfoC1ERKN6OpenSP8ConstPtrINS_10InheritedCEEEPKNS_11VarStyleObjEjjPKNS_14ProcessingMode4RuleERKNS1_3PtrIS0_EE
libostyle.so.0:_ZN14OpenJade_DSSSL14InheritedCInfoC2ERKN6OpenSP8ConstPtrINS_10InheritedCEEEPKNS_11VarStyleObjEjjPKNS_14ProcessingMode4RuleERKNS1_3PtrIS0_EE
libostyle.so.0:_ZN14OpenJade_DSSSL14InlineSpaceObj13asInlineSpaceEv
libostyle.so.0:_ZN14OpenJade_DSSSL14InlineSpaceObjC1ERKNS_10FOTBuilder11InlineSpaceE
libostyle.so.0:_ZN14OpenJade_DSSSL14InlineSpaceObjC2ERKNS_10FOTBuilder11InlineSpaceE
libostyle.so.0:_ZN14OpenJade_DSSSL14LabelSosofoObj7processERNS_14ProcessContextE
libostyle.so.0:_ZN14OpenJade_DSSSL14LabelSosofoObjC1EPNS_9SymbolObjERKN6OpenSP8LocationEPNS_9SosofoObjE
libostyle.so.0:_ZN14OpenJade_DSSSL14LabelSosofoObjC2EPNS_9SymbolObjERKN6OpenSP8LocationEPNS_9SosofoObjE
libostyle.so.0:_ZN14OpenJade_DSSSL14MakeExpression21compileNonInheritedCsERNS_11InterpreterERKNS_11EnvironmentEiRKN6OpenSP8ConstPtrINS_4InsnEEE
libostyle.so.0:_ZN14OpenJade_DSSSL14MakeExpression24applyConstNonInheritedCsEPNS_7FlowObjERNS_11InterpreterERKNS_11EnvironmentE
libostyle.so.0:_ZN14OpenJade_DSSSL14MakeExpression7compileERNS_11InterpreterERKNS_11EnvironmentEiRKN6OpenSP8ConstPtrINS_4InsnEEE
libostyle.so.0:_ZN14OpenJade_DSSSL14MakeExpressionC1EPKNS_10IdentifierERN6OpenSP6VectorIS3_EERNS4_8NCVectorINS4_5OwnerINS_10ExpressionEEEEERKNS4_8LocationE
libostyle.so.0:_ZN14OpenJade_DSSSL14MakeExpressionC2EPKNS_10IdentifierERN6OpenSP6VectorIS3_EERNS4_8NCVectorINS4_5OwnerINS_10ExpressionEEEEERKNS4_8LocationE
libostyle.so.0:_ZN14OpenJade_DSSSL14MapNodeListObj12nodeListRestERNS_11EvalContextERNS_11InterpreterE
libostyle.so.0:_ZN14OpenJade_DSSSL14MapNodeListObj13nodeListFirstERNS_11EvalContextERNS_11InterpreterE
libostyle.so.0:_ZN14OpenJade_DSSSL14MapNodeListObj13suppressErrorEv
libostyle.so.0:_ZN14OpenJade_DSSSL14MapNodeListObj7ContextC1ERKNS_11EvalContextERKN6OpenSP8LocationE
libostyle.so.0:_ZN14OpenJade_DSSSL14MapNodeListObj7ContextC2ERKNS_11EvalContextERKN6OpenSP8LocationE
libostyle.so.0:_ZN14OpenJade_DSSSL14MapNodeListObj7mapNextERNS_11EvalContextERNS_11InterpreterE
libostyle.so.0:_ZN14OpenJade_DSSSL14MapNodeListObjC1EPNS_11FunctionObjEPNS_11NodeListObjERKN6OpenSP8ConstPtrINS0_7ContextEEES4_
libostyle.so.0:_ZN14OpenJade_DSSSL14MapNodeListObjC2EPNS_11FunctionObjEPNS_11NodeListObjERKN6OpenSP8ConstPtrINS0_7ContextEEES4_
libostyle.so.0:_ZN14OpenJade_DSSSL14ProcessContext10ConnectionC1EPNS_10FOTBuilderE
libostyle.so.0:_ZN14OpenJade_DSSSL14ProcessContext10ConnectionC1ERKNS_10StyleStackEPNS0_4PortEj
libostyle.so.0:_ZN14OpenJade_DSSSL14ProcessContext10ConnectionC2EPNS_10FOTBuilderE
libostyle.so.0:_ZN14OpenJade_DSSSL14ProcessContext10ConnectionC2ERKNS_10StyleStackEPNS0_4PortEj
libostyle.so.0:_ZN14OpenJade_DSSSL14ProcessContext10endFlowObjEv
libostyle.so.0:_ZN14OpenJade_DSSSL14ProcessContext10inTableRowEv
libostyle.so.0:_ZN14OpenJade_DSSSL14ProcessContext10startTableEv
libostyle.so.0:_ZN14OpenJade_DSSSL14ProcessContext11ConnectableC1EiRKNS_10StyleStackEj
libostyle.so.0:_ZN14OpenJade_DSSSL14ProcessContext11ConnectableC2EiRKNS_10StyleStackEj
libostyle.so.0:_ZN14OpenJade_DSSSL14ProcessContext11endTableRowEv
libostyle.so.0:_ZN14OpenJade_DSSSL14ProcessContext11processNodeERKN14OpenJade_Grove7NodePtrEPKNS_14ProcessingModeEb
libostyle.so.0:_ZN14OpenJade_DSSSL14ProcessContext12endTablePartEv
libostyle.so.0:_ZN14OpenJade_DSSSL14ProcessContext13badContentMapERbRKN6OpenSP8LocationE
libostyle.so.0:_ZN14OpenJade_DSSSL14ProcessContext13endConnectionEv
libostyle.so.0:_ZN14OpenJade_DSSSL14ProcessContext13endMapContentEv
libostyle.so.0:_ZN14OpenJade_DSSSL14ProcessContext13noteTableCellEjjj
libostyle.so.0:_ZN14OpenJade_DSSSL14ProcessContext13startTableRowEPNS_8StyleObjE
libostyle.so.0:_ZN14OpenJade_DSSSL14ProcessContext13tableRowStyleEv
libostyle.so.0:_ZN14OpenJade_DSSSL14ProcessContext14addTableColumnEjjPNS_8StyleObjE
libostyle.so.0:_ZN14OpenJade_DSSSL14ProcessContext14startTablePartEv
libostyle.so.0:_ZN14OpenJade_DSSSL14ProcessContext15processChildrenEPKNS_14ProcessingModeE
libostyle.so.0:_ZN14OpenJade_DSSSL14ProcessContext15processNodeSafeERKN14OpenJade_Grove7NodePtrEPKNS_14ProcessingModeEb
libostyle.so.0:_ZN14OpenJade_DSSSL14ProcessContext15startConnectionEPNS_9SymbolObjERKN6OpenSP8LocationE
libostyle.so.0:_ZN14OpenJade_DSSSL14ProcessContext15startMapContentEPNS_5ELObjERKN6OpenSP8LocationE
libostyle.so.0:_ZN14OpenJade_DSSSL14ProcessContext16coverSpannedRowsEv
libostyle.so.0:_ZN14OpenJade_DSSSL14ProcessContext16popPrincipalPortEv
libostyle.so.0:_ZN14OpenJade_DSSSL14ProcessContext16tableColumnStyleEjj
libostyle.so.0:_ZN14OpenJade_DSSSL14ProcessContext17endDiscardLabeledEv
libostyle.so.0:_ZN14OpenJade_DSSSL14ProcessContext17pushPrincipalPortEPNS_10FOTBuilderE
libostyle.so.0:_ZN14OpenJade_DSSSL14ProcessContext17restoreConnectionEjm
libostyle.so.0:_ZN14OpenJade_DSSSL14ProcessContext18currentTableColumnEv
libostyle.so.0:_ZN14OpenJade_DSSSL14ProcessContext19processChildrenTrimEPKNS_14ProcessingModeE
libostyle.so.0:_ZN14OpenJade_DSSSL14ProcessContext19startDiscardLabeledEPNS_9SymbolObjE
libostyle.so.0:_ZN14OpenJade_DSSSL14ProcessContext4PortC1Ev
libostyle.so.0:_ZN14OpenJade_DSSSL14ProcessContext4PortC2Ev
libostyle.so.0:_ZN14OpenJade_DSSSL14ProcessContext5TableC1Ev
libostyle.so.0:_ZN14OpenJade_DSSSL14ProcessContext5TableC2Ev
libostyle.so.0:_ZN14OpenJade_DSSSL14ProcessContext7processERKN14OpenJade_Grove7NodePtrE
libostyle.so.0:_ZN14OpenJade_DSSSL14ProcessContext8endTableEv
libostyle.so.0:_ZN14OpenJade_DSSSL14ProcessContext8popPortsEv
libostyle.so.0:_ZN14OpenJade_DSSSL14ProcessContext9nextMatchEPNS_8StyleObjE
libostyle.so.0:_ZN14OpenJade_DSSSL14ProcessContext9pushPortsEbRKN6OpenSP6VectorIPNS_9SymbolObjEEERKNS2_IPNS_10FOTBuilderEEE
libostyle.so.0:_ZN14OpenJade_DSSSL14ProcessContextC1ERNS_11InterpreterERNS_10FOTBuilderE
libostyle.so.0:_ZN14OpenJade_DSSSL14ProcessContextC2ERNS_11InterpreterERNS_10FOTBuilderE
libostyle.so.0:_ZN14OpenJade_DSSSL14ProcessingMode10GroveRules5buildEPKN6OpenSP5IListINS0_11ElementRuleEEERKN14OpenJade_Grove7NodePtrERNS2_9MessengerE
libostyle.so.0:_ZN14OpenJade_DSSSL14ProcessingMode10GroveRules9sortRulesERN6OpenSP6VectorIPKNS0_11ElementRuleEEE
libostyle.so.0:_ZN14OpenJade_DSSSL14ProcessingMode10GroveRulesC1Ev
libostyle.so.0:_ZN14OpenJade_DSSSL14ProcessingMode10GroveRulesC2Ev
libostyle.so.0:_ZN14OpenJade_DSSSL14ProcessingMode11ElementRuleC1ERKN6OpenSP3PtrINS0_6ActionEEERNS_7PatternE
libostyle.so.0:_ZN14OpenJade_DSSSL14ProcessingMode11ElementRuleC2ERKN6OpenSP3PtrINS0_6ActionEEERNS_7PatternE
libostyle.so.0:_ZN14OpenJade_DSSSL14ProcessingMode12ElementRulesC1ERKN6OpenSP6StringIjEE
libostyle.so.0:_ZN14OpenJade_DSSSL14ProcessingMode12ElementRulesC2ERKN6OpenSP6StringIjEE
libostyle.so.0:_ZN14OpenJade_DSSSL14ProcessingMode18elementRuleAdvanceERKN14OpenJade_Grove7NodePtrERNS_7Pattern12MatchContextERN6OpenSP9MessengerERNS0_11SpecificityERKNS8_6VectorIPKNS0_11ElementRuleEEE
libostyle.so.0:_ZN14OpenJade_DSSSL14ProcessingMode4RuleC1ERKN6OpenSP3PtrINS0_6ActionEEE
libostyle.so.0:_ZN14OpenJade_DSSSL14ProcessingMode4RuleC1Ev
libostyle.so.0:_ZN14OpenJade_DSSSL14ProcessingMode4RuleC2ERKN6OpenSP3PtrINS0_6ActionEEE
libostyle.so.0:_ZN14OpenJade_DSSSL14ProcessingMode4RuleC2Ev
libostyle.so.0:_ZN14OpenJade_DSSSL14ProcessingMode6Action7compileERNS_11InterpreterENS0_8RuleTypeE
libostyle.so.0:_ZN14OpenJade_DSSSL14ProcessingMode6ActionC1EjRN6OpenSP5OwnerINS_10ExpressionEEERKNS2_8LocationE
libostyle.so.0:_ZN14OpenJade_DSSSL14ProcessingMode6ActionC2EjRN6OpenSP5OwnerINS_10ExpressionEEERKNS2_8LocationE
libostyle.so.0:_ZN14OpenJade_DSSSL14ProcessingMode7addRuleEbRN6OpenSP8NCVectorINS_7PatternEEERNS1_5OwnerINS_10ExpressionEEENS0_8RuleTypeERKNS1_8LocationERNS_11InterpreterE
libostyle.so.0:_ZN14OpenJade_DSSSL14ProcessingMode7compileERNS_11InterpreterE
libostyle.so.0:_ZN14OpenJade_DSSSL14ProcessingModeC1ERKN6OpenSP6StringIjEEPKS0_
libostyle.so.0:_ZN14OpenJade_DSSSL14ProcessingModeC2ERKN6OpenSP6StringIjEEPKS0_
libostyle.so.0:_ZN14OpenJade_DSSSL14RadicalFlowObj12processInnerERNS_14ProcessContextE
libostyle.so.0:_ZN14OpenJade_DSSSL14RadicalFlowObj16setNonInheritedCEPKNS_10IdentifierEPNS_5ELObjERKN6OpenSP8LocationERNS_11InterpreterE
libostyle.so.0:_ZN14OpenJade_DSSSL14SaveFOTBuilder10charactersEPKjm
libostyle.so.0:_ZN14OpenJade_DSSSL14SaveFOTBuilder10endRadicalEv
libostyle.so.0:_ZN14OpenJade_DSSSL14SaveFOTBuilder10pageNumberEv
libostyle.so.0:_ZN14OpenJade_DSSSL14SaveFOTBuilder10setBoxTypeENS_10FOTBuilder6SymbolE
libostyle.so.0:_ZN14OpenJade_DSSSL14SaveFOTBuilder10setCountryEj
libostyle.so.0:_ZN14OpenJade_DSSSL14SaveFOTBuilder10setLineCapENS_10FOTBuilder6SymbolE
libostyle.so.0:_ZN14OpenJade_DSSSL14SaveFOTBuilder10setLineSepEl
libostyle.so.0:_ZN14OpenJade_DSSSL14SaveFOTBuilder10startFenceERPNS_10FOTBuilderES3_
libostyle.so.0:_ZN14OpenJade_DSSSL14SaveFOTBuilder10startScoreENS_10FOTBuilder6SymbolE
libostyle.so.0:_ZN14OpenJade_DSSSL14SaveFOTBuilder10startScoreERKNS_10FOTBuilder10LengthSpecE
libostyle.so.0:_ZN14OpenJade_DSSSL14SaveFOTBuilder10startScoreEj
libostyle.so.0:_ZN14OpenJade_DSSSL14SaveFOTBuilder10startTableERKNS_10FOTBuilder8TableNICE
libostyle.so.0:_ZN14OpenJade_DSSSL14SaveFOTBuilder11BoolArgCall4emitERNS_10FOTBuilderE
libostyle.so.0:_ZN14OpenJade_DSSSL14SaveFOTBuilder11CharArgCall4emitERNS_10FOTBuilderE
libostyle.so.0:_ZN14OpenJade_DSSSL14SaveFOTBuilder11LongArgCall4emitERNS_10FOTBuilderE
libostyle.so.0:_ZN14OpenJade_DSSSL14SaveFOTBuilder11endFractionEv
libostyle.so.0:_ZN14OpenJade_DSSSL14SaveFOTBuilder11endGridCellEv
libostyle.so.0:_ZN14OpenJade_DSSSL14SaveFOTBuilder11endSequenceEv
libostyle.so.0:_ZN14OpenJade_DSSSL14SaveFOTBuilder11endSidelineEv
libostyle.so.0:_ZN14OpenJade_DSSSL14SaveFOTBuilder11endTableRowEv
libostyle.so.0:_ZN14OpenJade_DSSSL14SaveFOTBuilder11fractionBarEv
libostyle.so.0:_ZN14OpenJade_DSSSL14SaveFOTBuilder11setFontNameEPKc
libostyle.so.0:_ZN14OpenJade_DSSSL14SaveFOTBuilder11setFontSizeEl
libostyle.so.0:_ZN14OpenJade_DSSSL14SaveFOTBuilder11setKernModeENS_10FOTBuilder6SymbolE
libostyle.so.0:_ZN14OpenJade_DSSSL14SaveFOTBuilder11setLanguageEj
libostyle.so.0:_ZN14OpenJade_DSSSL14SaveFOTBuilder11setLigatureEb
libostyle.so.0:_ZN14OpenJade_DSSSL14SaveFOTBuilder11setLineJoinENS_10FOTBuilder6SymbolE
libostyle.so.0:_ZN14OpenJade_DSSSL14SaveFOTBuilder11setQuaddingENS_10FOTBuilder6SymbolE
libostyle.so.0:_ZN14OpenJade_DSSSL14SaveFOTBuilder11setSpanWeakEb
libostyle.so.0:_ZN14OpenJade_DSSSL14SaveFOTBuilder11startLeaderERKNS_10FOTBuilder9LeaderNICE
libostyle.so.0:_ZN14OpenJade_DSSSL14SaveFOTBuilder11startScriptERPNS_10FOTBuilderES3_S3_S3_S3_S3_
libostyle.so.0:_ZN14OpenJade_DSSSL14SaveFOTBuilder11startScrollEv
libostyle.so.0:_ZN14OpenJade_DSSSL14SaveFOTBuilder11startUnmathEv
libostyle.so.0:_ZN14OpenJade_DSSSL14SaveFOTBuilder11tableColumnERKNS_10FOTBuilder14TableColumnNICE
libostyle.so.0:_ZN14OpenJade_DSSSL14SaveFOTBuilder12StartBoxCall4emitERNS_10FOTBuilderE
libostyle.so.0:_ZN14OpenJade_DSSSL14SaveFOTBuilder12endExtensionERKNS_10FOTBuilder24CompoundExtensionFlowObjE
libostyle.so.0:_ZN14OpenJade_DSSSL14SaveFOTBuilder12endLineFieldEv
libostyle.so.0:_ZN14OpenJade_DSSSL14SaveFOTBuilder12endMultiModeEv
libostyle.so.0:_ZN14OpenJade_DSSSL14SaveFOTBuilder12endParagraphEv
libostyle.so.0:_ZN14OpenJade_DSSSL14SaveFOTBuilder12endSubscriptEv
libostyle.so.0:_ZN14OpenJade_DSSSL14SaveFOTBuilder12endTableCellEv
libostyle.so.0:_ZN14OpenJade_DSSSL14SaveFOTBuilder12endTablePartEv
libostyle.so.0:_ZN14OpenJade_DSSSL14SaveFOTBuilder12extensionSetEMNS_10FOTBuilderEFvRKN6OpenSP6StringIjEEES6_
libostyle.so.0:_ZN14OpenJade_DSSSL14SaveFOTBuilder12extensionSetEMNS_10FOTBuilderEFvbEb
libostyle.so.0:_ZN14OpenJade_DSSSL14SaveFOTBuilder12extensionSetEMNS_10FOTBuilderEFvlEl
libostyle.so.0:_ZN14OpenJade_DSSSL14SaveFOTBuilder12setEndIndentERKNS_10FOTBuilder10LengthSpecE
libostyle.so.0:_ZN14OpenJade_DSSSL14SaveFOTBuilder12setEndMarginERKNS_10FOTBuilder10LengthSpecE
libostyle.so.0:_ZN14OpenJade_DSSSL14SaveFOTBuilder12setHyphenateEb
libostyle.so.0:_ZN14OpenJade_DSSSL14SaveFOTBuilder12setPageWidthEl
libostyle.so.0:_ZN14OpenJade_DSSSL14SaveFOTBuilder12setTopMarginEl
libostyle.so.0:_ZN14OpenJade_DSSSL14SaveFOTBuilder12startRadicalERPNS_10FOTBuilderE
libostyle.so.0:_ZN14OpenJade_DSSSL14SaveFOTBuilder13CharacterCall4emitERNS_10FOTBuilderE
libostyle.so.0:_ZN14OpenJade_DSSSL14SaveFOTBuilder13ExtensionCall4emitERNS_10FOTBuilderE
libostyle.so.0:_ZN14OpenJade_DSSSL14SaveFOTBuilder13StartGridCall4emitERNS_10FOTBuilderE
libostyle.so.0:_ZN14OpenJade_DSSSL14SaveFOTBuilder13StartLinkCall4emitERNS_10FOTBuilderE
libostyle.so.0:_ZN14OpenJade_DSSSL14SaveFOTBuilder13StartNodeCall4emitERNS_10FOTBuilderE
libostyle.so.0:_ZN14OpenJade_DSSSL14SaveFOTBuilder13StartNodeCallC1ERKN14OpenJade_Grove7NodePtrERKN6OpenSP6StringIjEE
libostyle.so.0:_ZN14OpenJade_DSSSL14SaveFOTBuilder13StartNodeCallC2ERKN14OpenJade_Grove7NodePtrERKN6OpenSP6StringIjEE
libostyle.so.0:_ZN14OpenJade_DSSSL14SaveFOTBuilder13StringArgCall4emitERNS_10FOTBuilderE
libostyle.so.0:_ZN14OpenJade_DSSSL14SaveFOTBuilder13SymbolArgCall4emitERNS_10FOTBuilderE
libostyle.so.0:_ZN14OpenJade_DSSSL14SaveFOTBuilder13endMarginaliaEv
libostyle.so.0:_ZN14OpenJade_DSSSL14SaveFOTBuilder13setBoxOpenEndEb
libostyle.so.0:_ZN14OpenJade_DSSSL14SaveFOTBuilder13setExpandTabsEl
libostyle.so.0:_ZN14OpenJade_DSSSL14SaveFOTBuilder13setFieldAlignENS_10FOTBuilder6SymbolE
libostyle.so.0:_ZN14OpenJade_DSSSL14SaveFOTBuilder13setFieldWidthERKNS_10FOTBuilder10LengthSpecE
libostyle.so.0:_ZN14OpenJade_DSSSL14SaveFOTBuilder13setFontWeightENS_10FOTBuilder6SymbolE
libostyle.so.0:_ZN14OpenJade_DSSSL14SaveFOTBuilder13setLeftMarginEl
libostyle.so.0:_ZN14OpenJade_DSSSL14SaveFOTBuilder13setLineRepeatEl
libostyle.so.0:_ZN14OpenJade_DSSSL14SaveFOTBuilder13setMinLeadingERKNS_10FOTBuilder13OptLengthSpecE
libostyle.so.0:_ZN14OpenJade_DSSSL14SaveFOTBuilder13setPageHeightEl
libostyle.so.0:_ZN14OpenJade_DSSSL14SaveFOTBuilder13setWidowCountEl
libostyle.so.0:_ZN14OpenJade_DSSSL14SaveFOTBuilder13startFractionERPNS_10FOTBuilderES3_
libostyle.so.0:_ZN14OpenJade_DSSSL14SaveFOTBuilder13startGridCellERKNS_10FOTBuilder11GridCellNICE
libostyle.so.0:_ZN14OpenJade_DSSSL14SaveFOTBuilder13startSequenceEv
libostyle.so.0:_ZN14OpenJade_DSSSL14SaveFOTBuilder13startSidelineEv
libostyle.so.0:_ZN14OpenJade_DSSSL14SaveFOTBuilder13startTableRowEv
libostyle.so.0:_ZN14OpenJade_DSSSL14SaveFOTBuilder14CharactersCall4emitERNS_10FOTBuilderE
libostyle.so.0:_ZN14OpenJade_DSSSL14SaveFOTBuilder14CharactersCallC1EPKjm
libostyle.so.0:_ZN14OpenJade_DSSSL14SaveFOTBuilder14CharactersCallC2EPKjm
libostyle.so.0:_ZN14OpenJade_DSSSL14SaveFOTBuilder14NodePtrArgCall4emitERNS_10FOTBuilderE
libostyle.so.0:_ZN14OpenJade_DSSSL14SaveFOTBuilder14StartTableCall4emitERNS_10FOTBuilderE
libostyle.so.0:_ZN14OpenJade_DSSSL14SaveFOTBuilder14alignmentPointEv
libostyle.so.0:_ZN14OpenJade_DSSSL14SaveFOTBuilder14endSuperscriptEv
libostyle.so.0:_ZN14OpenJade_DSSSL14SaveFOTBuilder14paragraphBreakERKNS_10FOTBuilder10DisplayNICE
libostyle.so.0:_ZN14OpenJade_DSSSL14SaveFOTBuilder14radicalRadicalERKNS_10FOTBuilder12CharacterNICE
libostyle.so.0:_ZN14OpenJade_DSSSL14SaveFOTBuilder14setAlignLeaderEb
libostyle.so.0:_ZN14OpenJade_DSSSL14SaveFOTBuilder14setCellCrossedENS_10FOTBuilder6SymbolE
libostyle.so.0:_ZN14OpenJade_DSSSL14SaveFOTBuilder14setFontPostureENS_10FOTBuilder6SymbolE
libostyle.so.0:_ZN14OpenJade_DSSSL14SaveFOTBuilder14setLineSpacingERKNS_10FOTBuilder10LengthSpecE
libostyle.so.0:_ZN14OpenJade_DSSSL14SaveFOTBuilder14setOrphanCountEl
libostyle.so.0:_ZN14OpenJade_DSSSL14SaveFOTBuilder14setRightMarginEl
libostyle.so.0:_ZN14OpenJade_DSSSL14SaveFOTBuilder14setScoreSpacesEb
libostyle.so.0:_ZN14OpenJade_DSSSL14SaveFOTBuilder14setSidelineSepERKNS_10FOTBuilder10LengthSpecE
libostyle.so.0:_ZN14OpenJade_DSSSL14SaveFOTBuilder14setStartIndentERKNS_10FOTBuilder10LengthSpecE
libostyle.so.0:_ZN14OpenJade_DSSSL14SaveFOTBuilder14setStartMarginERKNS_10FOTBuilder10LengthSpecE
libostyle.so.0:_ZN14OpenJade_DSSSL14SaveFOTBuilder14setWritingModeENS_10FOTBuilder6SymbolE
libostyle.so.0:_ZN14OpenJade_DSSSL14SaveFOTBuilder14startExtensionERKNS_10FOTBuilder24CompoundExtensionFlowObjERKN14OpenJade_Grove7NodePtrERN6OpenSP6VectorIPS1_EE
libostyle.so.0:_ZN14OpenJade_DSSSL14SaveFOTBuilder14startLineFieldERKNS_10FOTBuilder9InlineNICE
libostyle.so.0:_ZN14OpenJade_DSSSL14SaveFOTBuilder14startMultiModeEPKNS_10FOTBuilder9MultiModeERKN6OpenSP6VectorIS2_EERNS6_IPS1_EE
libostyle.so.0:_ZN14OpenJade_DSSSL14SaveFOTBuilder14startParagraphERKNS_10FOTBuilder10DisplayNICE
libostyle.so.0:_ZN14OpenJade_DSSSL14SaveFOTBuilder14startSubscriptEv
libostyle.so.0:_ZN14OpenJade_DSSSL14SaveFOTBuilder14startTableCellERKNS_10FOTBuilder12TableCellNICE
libostyle.so.0:_ZN14OpenJade_DSSSL14SaveFOTBuilder14startTablePartERKNS_10FOTBuilder10DisplayNICERPS1_S6_
libostyle.so.0:_ZN14OpenJade_DSSSL14SaveFOTBuilder15PublicIdArgCall4emitERNS_10FOTBuilderE
libostyle.so.0:_ZN14OpenJade_DSSSL14SaveFOTBuilder15StartLeaderCall4emitERNS_10FOTBuilderE
libostyle.so.0:_ZN14OpenJade_DSSSL14SaveFOTBuilder15TableColumnCall4emitERNS_10FOTBuilderE
libostyle.so.0:_ZN14OpenJade_DSSSL14SaveFOTBuilder15UnsignedArgCall4emitERNS_10FOTBuilderE
libostyle.so.0:_ZN14OpenJade_DSSSL14SaveFOTBuilder15endDisplayGroupEv
libostyle.so.0:_ZN14OpenJade_DSSSL14SaveFOTBuilder15endMathOperatorEv
libostyle.so.0:_ZN14OpenJade_DSSSL14SaveFOTBuilder15endMathSequenceEv
libostyle.so.0:_ZN14OpenJade_DSSSL14SaveFOTBuilder15externalGraphicERKNS_10FOTBuilder18ExternalGraphicNICE
libostyle.so.0:_ZN14OpenJade_DSSSL14SaveFOTBuilder15setBottomMarginEl
libostyle.so.0:_ZN14OpenJade_DSSSL14SaveFOTBuilder15setBoxSizeAfterEl
libostyle.so.0:_ZN14OpenJade_DSSSL14SaveFOTBuilder15setFooterMarginEl
libostyle.so.0:_ZN14OpenJade_DSSSL14SaveFOTBuilder15setHangingPunctEb
libostyle.so.0:_ZN14OpenJade_DSSSL14SaveFOTBuilder15setHeaderMarginEl
libostyle.so.0:_ZN14OpenJade_DSSSL14SaveFOTBuilder15setSidelineSideENS_10FOTBuilder6SymbolE
libostyle.so.0:_ZN14OpenJade_DSSSL14SaveFOTBuilder15startMarginaliaEv
libostyle.so.0:_ZN14OpenJade_DSSSL14SaveFOTBuilder16EndExtensionCall4emitERNS_10FOTBuilderE
libostyle.so.0:_ZN14OpenJade_DSSSL14SaveFOTBuilder16asSaveFOTBuilderEv
libostyle.so.0:_ZN14OpenJade_DSSSL14SaveFOTBuilder16setBorderPresentEb
libostyle.so.0:_ZN14OpenJade_DSSSL14SaveFOTBuilder16setBoxSizeBeforeEl
libostyle.so.0:_ZN14OpenJade_DSSSL14SaveFOTBuilder16setFontStructureENS_10FOTBuilder6SymbolE
libostyle.so.0:_ZN14OpenJade_DSSSL14SaveFOTBuilder16setLineNumberSepERKNS_10FOTBuilder10LengthSpecE
libostyle.so.0:_ZN14OpenJade_DSSSL14SaveFOTBuilder16setLineThicknessEl
libostyle.so.0:_ZN14OpenJade_DSSSL14SaveFOTBuilder16setMarginaliaSepERKNS_10FOTBuilder10LengthSpecE
libostyle.so.0:_ZN14OpenJade_DSSSL14SaveFOTBuilder16setNumberedLinesEb
libostyle.so.0:_ZN14OpenJade_DSSSL14SaveFOTBuilder16startSuperscriptEv
libostyle.so.0:_ZN14OpenJade_DSSSL14SaveFOTBuilder17LengthSpecArgCall4emitERNS_10FOTBuilderE
libostyle.so.0:_ZN14OpenJade_DSSSL14SaveFOTBuilder17StartGridCellCall4emitERNS_10FOTBuilderE
libostyle.so.0:_ZN14OpenJade_DSSSL14SaveFOTBuilder17setAsisWrapIndentERKNS_10FOTBuilder10LengthSpecE
libostyle.so.0:_ZN14OpenJade_DSSSL14SaveFOTBuilder17setBackgroundTileEPKc
libostyle.so.0:_ZN14OpenJade_DSSSL14SaveFOTBuilder17setBorderPriorityEl
libostyle.so.0:_ZN14OpenJade_DSSSL14SaveFOTBuilder17setCellBackgroundEb
libostyle.so.0:_ZN14OpenJade_DSSSL14SaveFOTBuilder17setFontFamilyNameERKN6OpenSP6StringIjEE
libostyle.so.0:_ZN14OpenJade_DSSSL14SaveFOTBuilder17setLineNumberSideENS_10FOTBuilder6SymbolE
libostyle.so.0:_ZN14OpenJade_DSSSL14SaveFOTBuilder17setMarginaliaSideENS_10FOTBuilder6SymbolE
libostyle.so.0:_ZN14OpenJade_DSSSL14SaveFOTBuilder17setNumeratorAlignENS_10FOTBuilder6SymbolE
libostyle.so.0:_ZN14OpenJade_DSSSL14SaveFOTBuilder17setScriptPreAlignENS_10FOTBuilder6SymbolE
libostyle.so.0:_ZN14OpenJade_DSSSL14SaveFOTBuilder17setTruncateLeaderEb
libostyle.so.0:_ZN14OpenJade_DSSSL14SaveFOTBuilder17startDisplayGroupERKNS_10FOTBuilder15DisplayGroupNICE
libostyle.so.0:_ZN14OpenJade_DSSSL14SaveFOTBuilder17startMathOperatorERPNS_10FOTBuilderES3_S3_
libostyle.so.0:_ZN14OpenJade_DSSSL14SaveFOTBuilder17startMathSequenceEv
libostyle.so.0:_ZN14OpenJade_DSSSL14SaveFOTBuilder18InlineSpaceArgCall4emitERNS_10FOTBuilderE
libostyle.so.0:_ZN14OpenJade_DSSSL14SaveFOTBuilder18ParagraphBreakCall4emitERNS_10FOTBuilderE
libostyle.so.0:_ZN14OpenJade_DSSSL14SaveFOTBuilder18ParagraphBreakCallC1ERKNS_10FOTBuilder10DisplayNICE
libostyle.so.0:_ZN14OpenJade_DSSSL14SaveFOTBuilder18ParagraphBreakCallC2ERKNS_10FOTBuilder10DisplayNICE
libostyle.so.0:_ZN14OpenJade_DSSSL14SaveFOTBuilder18RadicalRadicalCall4emitERNS_10FOTBuilderE
libostyle.so.0:_ZN14OpenJade_DSSSL14SaveFOTBuilder18StartLineFieldCall4emitERNS_10FOTBuilderE
libostyle.so.0:_ZN14OpenJade_DSSSL14SaveFOTBuilder18StartParagraphCall4emitERNS_10FOTBuilderE
libostyle.so.0:_ZN14OpenJade_DSSSL14SaveFOTBuilder18StartParagraphCallC1ERKNS_10FOTBuilder10DisplayNICE
libostyle.so.0:_ZN14OpenJade_DSSSL14SaveFOTBuilder18StartParagraphCallC2ERKNS_10FOTBuilder10DisplayNICE
libostyle.so.0:_ZN14OpenJade_DSSSL14SaveFOTBuilder18StartTableCellCall4emitERNS_10FOTBuilderE
libostyle.so.0:_ZN14OpenJade_DSSSL14SaveFOTBuilder18charactersFromNodeERKN14OpenJade_Grove7NodePtrEPKjm
libostyle.so.0:_ZN14OpenJade_DSSSL14SaveFOTBuilder18setBackgroundColorERKNS_10FOTBuilder14DeviceRGBColorE
libostyle.so.0:_ZN14OpenJade_DSSSL14SaveFOTBuilder18setBackgroundColorEv
libostyle.so.0:_ZN14OpenJade_DSSSL14SaveFOTBuilder18setBackgroundLayerEl
libostyle.so.0:_ZN14OpenJade_DSSSL14SaveFOTBuilder18setBorderAlignmentENS_10FOTBuilder6SymbolE
libostyle.so.0:_ZN14OpenJade_DSSSL14SaveFOTBuilder18setBoxCornerRadiusERKNS_10FOTBuilder10LengthSpecE
libostyle.so.0:_ZN14OpenJade_DSSSL14SaveFOTBuilder18setGlyphSubstTableERKN6OpenSP6VectorINS1_8ConstPtrINS_10FOTBuilder15GlyphSubstTableEEEEE
libostyle.so.0:_ZN14OpenJade_DSSSL14SaveFOTBuilder18setHyphenationKeepENS_10FOTBuilder6SymbolE
libostyle.so.0:_ZN14OpenJade_DSSSL14SaveFOTBuilder18setIgnoreRecordEndEb
libostyle.so.0:_ZN14OpenJade_DSSSL14SaveFOTBuilder18setMathDisplayModeENS_10FOTBuilder6SymbolE
libostyle.so.0:_ZN14OpenJade_DSSSL14SaveFOTBuilder18setMinLeaderRepeatEl
libostyle.so.0:_ZN14OpenJade_DSSSL14SaveFOTBuilder18setScriptPostAlignENS_10FOTBuilder6SymbolE
libostyle.so.0:_ZN14OpenJade_DSSSL14SaveFOTBuilder19ExternalGraphicCall4emitERNS_10FOTBuilderE
libostyle.so.0:_ZN14OpenJade_DSSSL14SaveFOTBuilder19setCellRowAlignmentENS_10FOTBuilder6SymbolE
libostyle.so.0:_ZN14OpenJade_DSSSL14SaveFOTBuilder19setDenominatorAlignENS_10FOTBuilder6SymbolE
libostyle.so.0:_ZN14OpenJade_DSSSL14SaveFOTBuilder19setDisplayAlignmentENS_10FOTBuilder6SymbolE
libostyle.so.0:_ZN14OpenJade_DSSSL14SaveFOTBuilder19setFillingDirectionENS_10FOTBuilder6SymbolE
libostyle.so.0:_ZN14OpenJade_DSSSL14SaveFOTBuilder19setGlyphSubstMethodEPKc
libostyle.so.0:_ZN14OpenJade_DSSSL14SaveFOTBuilder19setGridRowAlignmentENS_10FOTBuilder6SymbolE
libostyle.so.0:_ZN14OpenJade_DSSSL14SaveFOTBuilder19setLastLineQuaddingENS_10FOTBuilder6SymbolE
libostyle.so.0:_ZN14OpenJade_DSSSL14SaveFOTBuilder19tableAfterRowBorderEv
libostyle.so.0:_ZN14OpenJade_DSSSL14SaveFOTBuilder20ExtensionBoolArgCall4emitERNS_10FOTBuilderE
libostyle.so.0:_ZN14OpenJade_DSSSL14SaveFOTBuilder20ExtensionLongArgCall4emitERNS_10FOTBuilderE
libostyle.so.0:_ZN14OpenJade_DSSSL14SaveFOTBuilder20OptLengthSpecArgCall4emitERNS_10FOTBuilderE
libostyle.so.0:_ZN14OpenJade_DSSSL14SaveFOTBuilder20setBorderOmitAtBreakEb
libostyle.so.0:_ZN14OpenJade_DSSSL14SaveFOTBuilder20setFloatOutSidelinesEb
libostyle.so.0:_ZN14OpenJade_DSSSL14SaveFOTBuilder20setHyphenationMethodEPKc
libostyle.so.0:_ZN14OpenJade_DSSSL14SaveFOTBuilder20setInhibitLineBreaksEb
libostyle.so.0:_ZN14OpenJade_DSSSL14SaveFOTBuilder20setLastLineEndIndentERKNS_10FOTBuilder10LengthSpecE
libostyle.so.0:_ZN14OpenJade_DSSSL14SaveFOTBuilder20setMinPreLineSpacingERKNS_10FOTBuilder13OptLengthSpecE
libostyle.so.0:_ZN14OpenJade_DSSSL14SaveFOTBuilder20setScriptMidSubAlignENS_10FOTBuilder6SymbolE
libostyle.so.0:_ZN14OpenJade_DSSSL14SaveFOTBuilder20setScriptMidSupAlignENS_10FOTBuilder6SymbolE
libostyle.so.0:_ZN14OpenJade_DSSSL14SaveFOTBuilder20setTableCornerRadiusERKNS_10FOTBuilder10LengthSpecE
libostyle.so.0:_ZN14OpenJade_DSSSL14SaveFOTBuilder20tableBeforeRowBorderEv
libostyle.so.0:_ZN14OpenJade_DSSSL14SaveFOTBuilder21DeviceRGBColorArgCall4emitERNS_10FOTBuilderE
libostyle.so.0:_ZN14OpenJade_DSSSL14SaveFOTBuilder21StartDisplayGroupCall4emitERNS_10FOTBuilderE
libostyle.so.0:_ZN14OpenJade_DSSSL14SaveFOTBuilder21StartDisplayGroupCallC1ERKNS_10FOTBuilder15DisplayGroupNICE
libostyle.so.0:_ZN14OpenJade_DSSSL14SaveFOTBuilder21StartDisplayGroupCallC2ERKNS_10FOTBuilder15DisplayGroupNICE
libostyle.so.0:_ZN14OpenJade_DSSSL14SaveFOTBuilder21currentNodePageNumberERKN14OpenJade_Grove7NodePtrE
libostyle.so.0:_ZN14OpenJade_DSSSL14SaveFOTBuilder21endSimplePageSequenceEv
libostyle.so.0:_ZN14OpenJade_DSSSL14SaveFOTBuilder21formattingInstructionERKN6OpenSP6StringIjEE
libostyle.so.0:_ZN14OpenJade_DSSSL14SaveFOTBuilder21setBoxBorderAlignmentENS_10FOTBuilder6SymbolE
libostyle.so.0:_ZN14OpenJade_DSSSL14SaveFOTBuilder21setCellAfterRowMarginEl
libostyle.so.0:_ZN14OpenJade_DSSSL14SaveFOTBuilder21setFloatOutMarginaliaEb
libostyle.so.0:_ZN14OpenJade_DSSSL14SaveFOTBuilder21setGlyphAlignmentModeENS_10FOTBuilder6SymbolE
libostyle.so.0:_ZN14OpenJade_DSSSL14SaveFOTBuilder21setGlyphReorderMethodEPKc
libostyle.so.0:_ZN14OpenJade_DSSSL14SaveFOTBuilder21setImplicitBidiMethodEPKc
libostyle.so.0:_ZN14OpenJade_DSSSL14SaveFOTBuilder21setLineBreakingMethodEPKc
libostyle.so.0:_ZN14OpenJade_DSSSL14SaveFOTBuilder21setMinPostLineSpacingERKNS_10FOTBuilder13OptLengthSpecE
libostyle.so.0:_ZN14OpenJade_DSSSL14SaveFOTBuilder21setPositionPointShiftERKNS_10FOTBuilder10LengthSpecE
libostyle.so.0:_ZN14OpenJade_DSSSL14SaveFOTBuilder22CharactersFromNodeCall4emitERNS_10FOTBuilderE
libostyle.so.0:_ZN14OpenJade_DSSSL14SaveFOTBuilder22CharactersFromNodeCallC1ERKN14OpenJade_Grove7NodePtrEPKjm
libostyle.so.0:_ZN14OpenJade_DSSSL14SaveFOTBuilder22CharactersFromNodeCallC2ERKN14OpenJade_Grove7NodePtrEPKjm
libostyle.so.0:_ZN14OpenJade_DSSSL14SaveFOTBuilder22ExtensionStringArgCall4emitERNS_10FOTBuilderE
libostyle.so.0:_ZN14OpenJade_DSSSL14SaveFOTBuilder22SetGlyphSubstTableCall4emitERNS_10FOTBuilderE
libostyle.so.0:_ZN14OpenJade_DSSSL14SaveFOTBuilder22setCellBeforeRowMarginEl
libostyle.so.0:_ZN14OpenJade_DSSSL14SaveFOTBuilder22setFloatOutLineNumbersEb
libostyle.so.0:_ZN14OpenJade_DSSSL14SaveFOTBuilder22setGridColumnAlignmentENS_10FOTBuilder6SymbolE
libostyle.so.0:_ZN14OpenJade_DSSSL14SaveFOTBuilder22setGridEquidistantRowsEb
libostyle.so.0:_ZN14OpenJade_DSSSL14SaveFOTBuilder22tableAfterColumnBorderEv
libostyle.so.0:_ZN14OpenJade_DSSSL14SaveFOTBuilder23radicalRadicalDefaultedEv
libostyle.so.0:_ZN14OpenJade_DSSSL14SaveFOTBuilder23setEscapementSpaceAfterERKNS_10FOTBuilder11InlineSpaceE
libostyle.so.0:_ZN14OpenJade_DSSSL14SaveFOTBuilder23setFirstLineStartIndentERKNS_10FOTBuilder10LengthSpecE
libostyle.so.0:_ZN14OpenJade_DSSSL14SaveFOTBuilder23setGridPositionCellTypeENS_10FOTBuilder6SymbolE
libostyle.so.0:_ZN14OpenJade_DSSSL14SaveFOTBuilder23setLastLineJustifyLimitERKNS_10FOTBuilder10LengthSpecE
libostyle.so.0:_ZN14OpenJade_DSSSL14SaveFOTBuilder23setTableAutoWidthMethodEPKc
libostyle.so.0:_ZN14OpenJade_DSSSL14SaveFOTBuilder23startSimplePageSequenceEPPNS_10FOTBuilderE
libostyle.so.0:_ZN14OpenJade_DSSSL14SaveFOTBuilder23tableBeforeColumnBorderEv
libostyle.so.0:_ZN14OpenJade_DSSSL14SaveFOTBuilder23tableCellAfterRowBorderEv
libostyle.so.0:_ZN14OpenJade_DSSSL14SaveFOTBuilder24setCellAfterColumnMarginEl
libostyle.so.0:_ZN14OpenJade_DSSSL14SaveFOTBuilder24setEscapementSpaceBeforeERKNS_10FOTBuilder11InlineSpaceE
libostyle.so.0:_ZN14OpenJade_DSSSL14SaveFOTBuilder24setLineCompositionMethodEPKc
libostyle.so.0:_ZN14OpenJade_DSSSL14SaveFOTBuilder24tableCellBeforeRowBorderEv
libostyle.so.0:_ZN14OpenJade_DSSSL14SaveFOTBuilder25setCellBeforeColumnMarginEl
libostyle.so.0:_ZN14OpenJade_DSSSL14SaveFOTBuilder25setFontProportionateWidthENS_10FOTBuilder6SymbolE
libostyle.so.0:_ZN14OpenJade_DSSSL14SaveFOTBuilder25setGridEquidistantColumnsEb
libostyle.so.0:_ZN14OpenJade_DSSSL14SaveFOTBuilder25setHyphenationLadderCountEl
libostyle.so.0:_ZN14OpenJade_DSSSL14SaveFOTBuilder26setJustifyGlyphSpaceMaxAddERKNS_10FOTBuilder10LengthSpecE
libostyle.so.0:_ZN14OpenJade_DSSSL14SaveFOTBuilder26tableCellAfterColumnBorderEv
libostyle.so.0:_ZN14OpenJade_DSSSL14SaveFOTBuilder27setHyphenationPushCharCountEl
libostyle.so.0:_ZN14OpenJade_DSSSL14SaveFOTBuilder27setInputWhitespaceTreatmentENS_10FOTBuilder6SymbolE
libostyle.so.0:_ZN14OpenJade_DSSSL14SaveFOTBuilder27tableCellBeforeColumnBorderEv
libostyle.so.0:_ZN14OpenJade_DSSSL14SaveFOTBuilder28setPrincipalModeSimultaneousEb
libostyle.so.0:_ZN14OpenJade_DSSSL14SaveFOTBuilder28setTablePartOmitMiddleFooterEb
libostyle.so.0:_ZN14OpenJade_DSSSL14SaveFOTBuilder28setTablePartOmitMiddleHeaderEb
libostyle.so.0:_ZN14OpenJade_DSSSL14SaveFOTBuilder29setHyphenationRemainCharCountEl
libostyle.so.0:_ZN14OpenJade_DSSSL14SaveFOTBuilder29setJustifyGlyphSpaceMaxRemoveERKNS_10FOTBuilder10LengthSpecE
libostyle.so.0:_ZN14OpenJade_DSSSL14SaveFOTBuilder29setMarginaliaKeepWithPreviousEb
libostyle.so.0:_ZN14OpenJade_DSSSL14SaveFOTBuilder33endSimplePageSequenceHeaderFooterEv
libostyle.so.0:_ZN14OpenJade_DSSSL14SaveFOTBuilder4CallD0Ev
libostyle.so.0:_ZN14OpenJade_DSSSL14SaveFOTBuilder4CallD1Ev
libostyle.so.0:_ZN14OpenJade_DSSSL14SaveFOTBuilder4CallD2Ev
libostyle.so.0:_ZN14OpenJade_DSSSL14SaveFOTBuilder4emitERNS_10FOTBuilderE
libostyle.so.0:_ZN14OpenJade_DSSSL14SaveFOTBuilder4ruleERKNS_10FOTBuilder7RuleNICE
libostyle.so.0:_ZN14OpenJade_DSSSL14SaveFOTBuilder6endBoxEv
libostyle.so.0:_ZN14OpenJade_DSSSL14SaveFOTBuilder7endGridEv
libostyle.so.0:_ZN14OpenJade_DSSSL14SaveFOTBuilder7endLinkEv
libostyle.so.0:_ZN14OpenJade_DSSSL14SaveFOTBuilder7endMarkEv
libostyle.so.0:_ZN14OpenJade_DSSSL14SaveFOTBuilder7endNodeEv
libostyle.so.0:_ZN14OpenJade_DSSSL14SaveFOTBuilder7setKernEb
libostyle.so.0:_ZN14OpenJade_DSSSL14SaveFOTBuilder7setSpanEl
libostyle.so.0:_ZN14OpenJade_DSSSL14SaveFOTBuilder8RuleCall4emitERNS_10FOTBuilderE
libostyle.so.0:_ZN14OpenJade_DSSSL14SaveFOTBuilder8endFenceEv
libostyle.so.0:_ZN14OpenJade_DSSSL14SaveFOTBuilder8endScoreEv
libostyle.so.0:_ZN14OpenJade_DSSSL14SaveFOTBuilder8endTableEv
libostyle.so.0:_ZN14OpenJade_DSSSL14SaveFOTBuilder8setColorERKNS_10FOTBuilder14DeviceRGBColorE
libostyle.so.0:_ZN14OpenJade_DSSSL14SaveFOTBuilder8setLayerEl
libostyle.so.0:_ZN14OpenJade_DSSSL14SaveFOTBuilder8setLinesENS_10FOTBuilder6SymbolE
libostyle.so.0:_ZN14OpenJade_DSSSL14SaveFOTBuilder8startBoxERKNS_10FOTBuilder6BoxNICE
libostyle.so.0:_ZN14OpenJade_DSSSL14SaveFOTBuilder9NoArgCall4emitERNS_10FOTBuilderE
libostyle.so.0:_ZN14OpenJade_DSSSL14SaveFOTBuilder9characterERKNS_10FOTBuilder12CharacterNICE
libostyle.so.0:_ZN14OpenJade_DSSSL14SaveFOTBuilder9endLeaderEv
libostyle.so.0:_ZN14OpenJade_DSSSL14SaveFOTBuilder9endScriptEv
libostyle.so.0:_ZN14OpenJade_DSSSL14SaveFOTBuilder9endScrollEv
libostyle.so.0:_ZN14OpenJade_DSSSL14SaveFOTBuilder9endUnmathEv
libostyle.so.0:_ZN14OpenJade_DSSSL14SaveFOTBuilder9extensionERKNS_10FOTBuilder16ExtensionFlowObjERKN14OpenJade_Grove7NodePtrE
libostyle.so.0:_ZN14OpenJade_DSSSL14SaveFOTBuilder9startGridERKNS_10FOTBuilder7GridNICE
libostyle.so.0:_ZN14OpenJade_DSSSL14SaveFOTBuilder9startLinkERKNS_10FOTBuilder7AddressE
libostyle.so.0:_ZN14OpenJade_DSSSL14SaveFOTBuilder9startMarkERPNS_10FOTBuilderES3_
libostyle.so.0:_ZN14OpenJade_DSSSL14SaveFOTBuilder9startNodeERKN14OpenJade_Grove7NodePtrERKN6OpenSP6StringIjEE
libostyle.so.0:_ZN14OpenJade_DSSSL14SaveFOTBuilderC1ERKN14OpenJade_Grove7NodePtrERKN6OpenSP6StringIjEE
libostyle.so.0:_ZN14OpenJade_DSSSL14SaveFOTBuilderC1Ev
libostyle.so.0:_ZN14OpenJade_DSSSL14SaveFOTBuilderC2ERKN14OpenJade_Grove7NodePtrERKN6OpenSP6StringIjEE
libostyle.so.0:_ZN14OpenJade_DSSSL14SaveFOTBuilderC2Ev
libostyle.so.0:_ZN14OpenJade_DSSSL14SaveFOTBuilderD0Ev
libostyle.so.0:_ZN14OpenJade_DSSSL14SaveFOTBuilderD1Ev
libostyle.so.0:_ZN14OpenJade_DSSSL14SaveFOTBuilderD2Ev
libostyle.so.0:_ZN14OpenJade_DSSSL14SetContentInsnC1EPKNS_15CompoundFlowObjEN6OpenSP8ConstPtrINS_4InsnEEE
libostyle.so.0:_ZN14OpenJade_DSSSL14SetContentInsnC2EPKNS_15CompoundFlowObjEN6OpenSP8ConstPtrINS_4InsnEEE
libostyle.so.0:_ZN14OpenJade_DSSSL14StartFenceCall4emitERNS_10FOTBuilderE
libostyle.so.0:_ZN14OpenJade_DSSSL14StartFenceCallC1ERPNS_10FOTBuilderES3_
libostyle.so.0:_ZN14OpenJade_DSSSL14StartFenceCallC2ERPNS_10FOTBuilderES3_
libostyle.so.0:_ZN14OpenJade_DSSSL14UnspecifiedObj5printERNS_11InterpreterERN6OpenSP16OutputCharStreamE
libostyle.so.0:_ZN14OpenJade_DSSSL14UnspecifiedObjC1Ev
libostyle.so.0:_ZN14OpenJade_DSSSL14UnspecifiedObjC2Ev
libostyle.so.0:_ZN14OpenJade_DSSSL14matchAncestorsEPNS_5ELObjERKN14OpenJade_Grove7NodePtrERS1_
libostyle.so.0:_ZN14OpenJade_DSSSL15AbsPrimitiveObj13primitiveCallEiPPNS_5ELObjERNS_11EvalContextERNS_11InterpreterERKN6OpenSP8LocationE
libostyle.so.0:_ZN14OpenJade_DSSSL15AppendSosofoObj14asAppendSosofoEv
libostyle.so.0:_ZN14OpenJade_DSSSL15AppendSosofoObj7processERNS_14ProcessContextE
libostyle.so.0:_ZN14OpenJade_DSSSL15CarPrimitiveObj13primitiveCallEiPPNS_5ELObjERNS_11EvalContextERNS_11InterpreterERKN6OpenSP8LocationE
libostyle.so.0:_ZN14OpenJade_DSSSL15CdrPrimitiveObj13primitiveCallEiPPNS_5ELObjERNS_11EvalContextERNS_11InterpreterERKN6OpenSP8LocationE
libostyle.so.0:_ZN14OpenJade_DSSSL15CompoundFlowObj12processInnerERNS_14ProcessContextE
libostyle.so.0:_ZN14OpenJade_DSSSL15CompoundFlowObj17asCompoundFlowObjEv
libostyle.so.0:_ZN14OpenJade_DSSSL15ContinuationObj4callERNS_2VMERKN6OpenSP8LocationEPKNS_4InsnE
libostyle.so.0:_ZN14OpenJade_DSSSL15ContinuationObj8tailCallERNS_2VMERKN6OpenSP8LocationEi
libostyle.so.0:_ZN14OpenJade_DSSSL15ContinuationObjC1Ev
libostyle.so.0:_ZN14OpenJade_DSSSL15ContinuationObjC2Ev
libostyle.so.0:_ZN14OpenJade_DSSSL15CopyFlowObjInsnC1EPNS_7FlowObjEN6OpenSP8ConstPtrINS_4InsnEEE
libostyle.so.0:_ZN14OpenJade_DSSSL15CopyFlowObjInsnC2EPNS_7FlowObjEN6OpenSP8ConstPtrINS_4InsnEEE
libostyle.so.0:_ZN14OpenJade_DSSSL15CosPrimitiveObj13primitiveCallEiPPNS_5ELObjERNS_11EvalContextERNS_11InterpreterERKN6OpenSP8LocationE
libostyle.so.0:_ZN14OpenJade_DSSSL15DisplaySpaceObj14asDisplaySpaceEv
libostyle.so.0:_ZN14OpenJade_DSSSL15DisplaySpaceObjC1ERKNS_10FOTBuilder12DisplaySpaceE
libostyle.so.0:_ZN14OpenJade_DSSSL15DisplaySpaceObjC2ERKNS_10FOTBuilder12DisplaySpaceE
libostyle.so.0:_ZN14OpenJade_DSSSL15ELObjMessageArg7convertEPNS_5ELObjERNS_11InterpreterE
libostyle.so.0:_ZN14OpenJade_DSSSL15ELObjMessageArgC1EPNS_5ELObjERNS_11InterpreterE
libostyle.so.0:_ZN14OpenJade_DSSSL15ELObjMessageArgC2EPNS_5ELObjERNS_11InterpreterE
libostyle.so.0:_ZN14OpenJade_DSSSL15ExpPrimitiveObj13primitiveCallEiPPNS_5ELObjERNS_11EvalContextERNS_11InterpreterERKN6OpenSP8LocationE
libostyle.so.0:_ZN14OpenJade_DSSSL15FontFamilyNameCC1EPKNS_10IdentifierEjPKjm
libostyle.so.0:_ZN14OpenJade_DSSSL15FontFamilyNameCC1EPKNS_10IdentifierEjRKN6OpenSP6StringIjEE
libostyle.so.0:_ZN14OpenJade_DSSSL15FontFamilyNameCC2EPKNS_10IdentifierEjPKjm
libostyle.so.0:_ZN14OpenJade_DSSSL15FontFamilyNameCC2EPKNS_10IdentifierEjRKN6OpenSP6StringIjEE
libostyle.so.0:_ZN14OpenJade_DSSSL15FractionFlowObj12processInnerERNS_14ProcessContextE
libostyle.so.0:_ZN14OpenJade_DSSSL15GridCellFlowObj12processInnerERNS_14ProcessContextE
libostyle.so.0:_ZN14OpenJade_DSSSL15GridCellFlowObj16setNonInheritedCEPKNS_10IdentifierEPNS_5ELObjERKN6OpenSP8LocationERNS_11InterpreterE
libostyle.so.0:_ZN14OpenJade_DSSSL15GridCellFlowObjC1ERKS0_
libostyle.so.0:_ZN14OpenJade_DSSSL15GridCellFlowObjC1Ev
libostyle.so.0:_ZN14OpenJade_DSSSL15GridCellFlowObjC2ERKS0_
libostyle.so.0:_ZN14OpenJade_DSSSL15GridCellFlowObjC2Ev
libostyle.so.0:_ZN14OpenJade_DSSSL15LabelSosofoInsnC1ERKN6OpenSP8LocationENS1_8ConstPtrINS_4InsnEEE
libostyle.so.0:_ZN14OpenJade_DSSSL15LabelSosofoInsnC2ERKN6OpenSP8LocationENS1_8ConstPtrINS_4InsnEEE
libostyle.so.0:_ZN14OpenJade_DSSSL15LogPrimitiveObj13primitiveCallEiPPNS_5ELObjERNS_11EvalContextERNS_11InterpreterERKN6OpenSP8LocationE
libostyle.so.0:_ZN14OpenJade_DSSSL15MaxPrimitiveObj13primitiveCallEiPPNS_5ELObjERNS_11EvalContextERNS_11InterpreterERKN6OpenSP8LocationE
libostyle.so.0:_ZN14OpenJade_DSSSL15MinPrimitiveObj13primitiveCallEiPPNS_5ELObjERNS_11EvalContextERNS_11InterpreterERKN6OpenSP8LocationE
libostyle.so.0:_ZN14OpenJade_DSSSL15NotPrimitiveObj13primitiveCallEiPPNS_5ELObjERNS_11EvalContextERNS_11InterpreterERKN6OpenSP8LocationE
libostyle.so.0:_ZN14OpenJade_DSSSL15PairNodeListObj12nodeListRestERNS_11EvalContextERNS_11InterpreterE
libostyle.so.0:_ZN14OpenJade_DSSSL15PairNodeListObj13nodeListFirstERNS_11EvalContextERNS_11InterpreterE
libostyle.so.0:_ZN14OpenJade_DSSSL15PairNodeListObj17nodeListChunkRestERNS_11EvalContextERNS_11InterpreterERb
libostyle.so.0:_ZN14OpenJade_DSSSL15PairNodeListObjC1EPNS_11NodeListObjES2_
libostyle.so.0:_ZN14OpenJade_DSSSL15PairNodeListObjC2EPNS_11NodeListObjES2_
libostyle.so.0:_ZN14OpenJade_DSSSL15PopBindingsInsn4makeEiN6OpenSP8ConstPtrINS_4InsnEEE
libostyle.so.0:_ZN14OpenJade_DSSSL15PopBindingsInsnC1EiN6OpenSP8ConstPtrINS_4InsnEEE
libostyle.so.0:_ZN14OpenJade_DSSSL15PopBindingsInsnC2EiN6OpenSP8ConstPtrINS_4InsnEEE
libostyle.so.0:_ZN14OpenJade_DSSSL15SequenceFlowObj12processInnerERNS_14ProcessContextE
libostyle.so.0:_ZN14OpenJade_DSSSL15SidelineFlowObj12processInnerERNS_14ProcessContextE
libostyle.so.0:_ZN14OpenJade_DSSSL15SinPrimitiveObj13primitiveCallEiPPNS_5ELObjERNS_11EvalContextERNS_11InterpreterERKN6OpenSP8LocationE
libostyle.so.0:_ZN14OpenJade_DSSSL15StackSetBoxInsnC1EiiRKN6OpenSP8LocationENS1_8ConstPtrINS_4InsnEEE
libostyle.so.0:_ZN14OpenJade_DSSSL15StackSetBoxInsnC2EiiRKN6OpenSP8LocationENS1_8ConstPtrINS_4InsnEEE
libostyle.so.0:_ZN14OpenJade_DSSSL15StartScriptCall4emitERNS_10FOTBuilderE
libostyle.so.0:_ZN14OpenJade_DSSSL15StartScriptCallC1ERPNS_10FOTBuilderES3_S3_S3_S3_S3_
libostyle.so.0:_ZN14OpenJade_DSSSL15StartScriptCallC2ERPNS_10FOTBuilderES3_S3_S3_S3_S3_
libostyle.so.0:_ZN14OpenJade_DSSSL15StyleExpression13markBoundVarsERNS_12BoundVarListEb
libostyle.so.0:_ZN14OpenJade_DSSSL15StyleExpression7compileERNS_11InterpreterERKNS_11EnvironmentEiRKN6OpenSP8ConstPtrINS_4InsnEEE
libostyle.so.0:_ZN14OpenJade_DSSSL15StyleExpressionC1ERN6OpenSP6VectorIPKNS_10IdentifierEEERNS1_8NCVectorINS1_5OwnerINS_10ExpressionEEEEERKNS1_8LocationE
libostyle.so.0:_ZN14OpenJade_DSSSL15StyleExpressionC2ERN6OpenSP6VectorIPKNS_10IdentifierEEERNS1_8NCVectorINS1_5OwnerINS_10ExpressionEEEEERKNS1_8LocationE
libostyle.so.0:_ZN14OpenJade_DSSSL15TanPrimitiveObj13primitiveCallEiPPNS_5ELObjERNS_11EvalContextERNS_11InterpreterERKN6OpenSP8LocationE
libostyle.so.0:_ZN14OpenJade_DSSSL16AcosPrimitiveObj13primitiveCallEiPPNS_5ELObjERNS_11EvalContextERNS_11InterpreterERKN6OpenSP8LocationE
libostyle.so.0:_ZN14OpenJade_DSSSL16AsinPrimitiveObj13primitiveCallEiPPNS_5ELObjERNS_11EvalContextERNS_11InterpreterERKN6OpenSP8LocationE
libostyle.so.0:_ZN14OpenJade_DSSSL16AtanPrimitiveObj13primitiveCallEiPPNS_5ELObjERNS_11EvalContextERNS_11InterpreterERKN6OpenSP8LocationE
libostyle.so.0:_ZN14OpenJade_DSSSL16BackgroundColorCC1EPKNS_10IdentifierEjPNS_8ColorObjERNS_11InterpreterE
libostyle.so.0:_ZN14OpenJade_DSSSL16BackgroundColorCC2EPKNS_10IdentifierEjPNS_8ColorObjERNS_11InterpreterE
libostyle.so.0:_ZN14OpenJade_DSSSL16CharacterFlowObj12processInnerERNS_14ProcessContextE
libostyle.so.0:_ZN14OpenJade_DSSSL16CharacterFlowObj15setImplicitCharEPNS_5ELObjERKN6OpenSP8LocationERNS_11InterpreterE
libostyle.so.0:_ZN14OpenJade_DSSSL16CharacterFlowObj16setNonInheritedCEPKNS_10IdentifierEPNS_5ELObjERKN6OpenSP8LocationERNS_11InterpreterE
libostyle.so.0:_ZN14OpenJade_DSSSL16CharacterFlowObjC1ERKS0_
libostyle.so.0:_ZN14OpenJade_DSSSL16CharacterFlowObjC1Ev
libostyle.so.0:_ZN14OpenJade_DSSSL16CharacterFlowObjC2ERKS0_
libostyle.so.0:_ZN14OpenJade_DSSSL16CharacterFlowObjC2Ev
libostyle.so.0:_ZN14OpenJade_DSSSL16ConsPrimitiveObj13primitiveCallEiPPNS_5ELObjERNS_11EvalContextERNS_11InterpreterERKN6OpenSP8LocationE
libostyle.so.0:_ZN14OpenJade_DSSSL16DataPrimitiveObj13primitiveCallEiPPNS_5ELObjERNS_11EvalContextERNS_11InterpreterERKN6OpenSP8LocationE
libostyle.so.0:_ZN14OpenJade_DSSSL16ExptPrimitiveObj13primitiveCallEiPPNS_5ELObjERNS_11EvalContextERNS_11InterpreterERKN6OpenSP8LocationE
libostyle.so.0:_ZN14OpenJade_DSSSL16ExtensionFlowObj12processInnerERNS_14ProcessContextE
libostyle.so.0:_ZN14OpenJade_DSSSL16ExtensionFlowObj16setNonInheritedCEPKNS_10IdentifierEPNS_5ELObjERKN6OpenSP8LocationERNS_11InterpreterE
libostyle.so.0:_ZN14OpenJade_DSSSL16ExtensionFlowObjC1ERKNS_10FOTBuilder16ExtensionFlowObjE
libostyle.so.0:_ZN14OpenJade_DSSSL16ExtensionFlowObjC1ERKS0_
libostyle.so.0:_ZN14OpenJade_DSSSL16ExtensionFlowObjC2ERKNS_10FOTBuilder16ExtensionFlowObjE
libostyle.so.0:_ZN14OpenJade_DSSSL16ExtensionFlowObjC2ERKS0_
libostyle.so.0:_ZN14OpenJade_DSSSL16FunctionCallInsnC1EiPNS_11FunctionObjERKN6OpenSP8LocationENS3_8ConstPtrINS_4InsnEEE
libostyle.so.0:_ZN14OpenJade_DSSSL16FunctionCallInsnC2EiPNS_11FunctionObjERKN6OpenSP8LocationENS3_8ConstPtrINS_4InsnEEE
libostyle.so.0:_ZN14OpenJade_DSSSL16GlyphSubstTableCC1EPKNS_10IdentifierEjb
libostyle.so.0:_ZN14OpenJade_DSSSL16GlyphSubstTableCC2EPKNS_10IdentifierEjb
libostyle.so.0:_ZN14OpenJade_DSSSL16LambdaExpression13markBoundVarsERNS_12BoundVarListEb
libostyle.so.0:_ZN14OpenJade_DSSSL16LambdaExpression7compileERNS_11InterpreterERKNS_11EnvironmentEiRKN6OpenSP8ConstPtrINS_4InsnEEE
libostyle.so.0:_ZN14OpenJade_DSSSL16LambdaExpressionC1ERN6OpenSP6VectorIPKNS_10IdentifierEEERNS1_8NCVectorINS1_5OwnerINS_10ExpressionEEEEEibiRSB_RKNS1_8LocationE
libostyle.so.0:_ZN14OpenJade_DSSSL16LambdaExpressionC2ERN6OpenSP6VectorIPKNS_10IdentifierEEERNS1_8NCVectorINS1_5OwnerINS_10ExpressionEEEEEibiRSB_RKNS1_8LocationE
libostyle.so.0:_ZN14OpenJade_DSSSL16LengthInheritedCC1EPKNS_10IdentifierEjl
libostyle.so.0:_ZN14OpenJade_DSSSL16LengthInheritedCC2EPKNS_10IdentifierEjl
libostyle.so.0:_ZN14OpenJade_DSSSL16LessPrimitiveObj13primitiveCallEiPPNS_5ELObjERNS_11EvalContextERNS_11InterpreterERKN6OpenSP8LocationE
libostyle.so.0:_ZN14OpenJade_DSSSL16LetrecExpression12compileInitsERNS_11InterpreterERKNS_11EnvironmentEmiRKN6OpenSP8ConstPtrINS_4InsnEEE
libostyle.so.0:_ZN14OpenJade_DSSSL16LetrecExpression13markBoundVarsERNS_12BoundVarListEb
libostyle.so.0:_ZN14OpenJade_DSSSL16LetrecExpression7compileERNS_11InterpreterERKNS_11EnvironmentEiRKN6OpenSP8ConstPtrINS_4InsnEEE
libostyle.so.0:_ZN14OpenJade_DSSSL16LetrecExpressionC1ERN6OpenSP6VectorIPKNS_10IdentifierEEERNS1_8NCVectorINS1_5OwnerINS_10ExpressionEEEEERSB_RKNS1_8LocationE
libostyle.so.0:_ZN14OpenJade_DSSSL16LetrecExpressionC2ERN6OpenSP6VectorIPKNS_10IdentifierEEERNS1_8NCVectorINS1_5OwnerINS_10ExpressionEEEEERSB_RKNS1_8LocationE
libostyle.so.0:_ZN14OpenJade_DSSSL16LineFieldFlowObj12processInnerERNS_14ProcessContextE
libostyle.so.0:_ZN14OpenJade_DSSSL16LineFieldFlowObj16setNonInheritedCEPKNS_10IdentifierEPNS_5ELObjERKN6OpenSP8LocationERNS_11InterpreterE
libostyle.so.0:_ZN14OpenJade_DSSSL16ListPrimitiveObj13primitiveCallEiPPNS_5ELObjERNS_11EvalContextERNS_11InterpreterERKN6OpenSP8LocationE
libostyle.so.0:_ZN14OpenJade_DSSSL16ListToVectorInsnC1EN6OpenSP8ConstPtrINS_4InsnEEE
libostyle.so.0:_ZN14OpenJade_DSSSL16ListToVectorInsnC2EN6OpenSP8ConstPtrINS_4InsnEEE
libostyle.so.0:_ZN14OpenJade_DSSSL16LiteralSosofoObj7processERNS_14ProcessContextE
libostyle.so.0:_ZN14OpenJade_DSSSL16MemvPrimitiveObj13primitiveCallEiPPNS_5ELObjERNS_11EvalContextERNS_11InterpreterERKN6OpenSP8LocationE
libostyle.so.0:_ZN14OpenJade_DSSSL16MultiModeFlowObj12processInnerERNS_14ProcessContextE
libostyle.so.0:_ZN14OpenJade_DSSSL16MultiModeFlowObj16setNonInheritedCEPKNS_10IdentifierEPNS_5ELObjERKN6OpenSP8LocationERNS_11InterpreterE
libostyle.so.0:_ZN14OpenJade_DSSSL16MultiModeFlowObj22handleMultiModesMemberEPKNS_10IdentifierEPNS_5ELObjERKN6OpenSP8LocationERNS_11InterpreterE
libostyle.so.0:_ZN14OpenJade_DSSSL16MultiModeFlowObjC1ERKS0_
libostyle.so.0:_ZN14OpenJade_DSSSL16MultiModeFlowObjC1Ev
libostyle.so.0:_ZN14OpenJade_DSSSL16MultiModeFlowObjC2ERKS0_
libostyle.so.0:_ZN14OpenJade_DSSSL16MultiModeFlowObjC2Ev
libostyle.so.0:_ZN14OpenJade_DSSSL16NamedNodeListObj15asNamedNodeListEv
libostyle.so.0:_ZN14OpenJade_DSSSL16ParagraphFlowObj12processInnerERNS_14ProcessContextE
libostyle.so.0:_ZN14OpenJade_DSSSL16ParagraphFlowObj16setNonInheritedCEPKNS_10IdentifierEPNS_5ELObjERKN6OpenSP8LocationERNS_11InterpreterE
libostyle.so.0:_ZN14OpenJade_DSSSL16ParagraphFlowObjC1ERKS0_
libostyle.so.0:_ZN14OpenJade_DSSSL16ParagraphFlowObjC1Ev
libostyle.so.0:_ZN14OpenJade_DSSSL16ParagraphFlowObjC2ERKS0_
libostyle.so.0:_ZN14OpenJade_DSSSL16ParagraphFlowObjC2Ev
libostyle.so.0:_ZN14OpenJade_DSSSL16PlusPrimitiveObj13primitiveCallEiPPNS_5ELObjERNS_11EvalContextERNS_11InterpreterERKN6OpenSP8LocationE
libostyle.so.0:_ZN14OpenJade_DSSSL16SerialFOTBuilder10endRadicalEv
libostyle.so.0:_ZN14OpenJade_DSSSL16SerialFOTBuilder10startFenceERPNS_10FOTBuilderES3_
libostyle.so.0:_ZN14OpenJade_DSSSL16SerialFOTBuilder11endFractionEv
libostyle.so.0:_ZN14OpenJade_DSSSL16SerialFOTBuilder11endMarkOverEv
libostyle.so.0:_ZN14OpenJade_DSSSL16SerialFOTBuilder11startScriptERPNS_10FOTBuilderES3_S3_S3_S3_S3_
libostyle.so.0:_ZN14OpenJade_DSSSL16SerialFOTBuilder12endExtensionERKNS_10FOTBuilder24CompoundExtensionFlowObjE
libostyle.so.0:_ZN14OpenJade_DSSSL16SerialFOTBuilder12endFenceOpenEv
libostyle.so.0:_ZN14OpenJade_DSSSL16SerialFOTBuilder12endMarkUnderEv
libostyle.so.0:_ZN14OpenJade_DSSSL16SerialFOTBuilder12endMultiModeEv
libostyle.so.0:_ZN14OpenJade_DSSSL16SerialFOTBuilder12endTablePartEv
libostyle.so.0:_ZN14OpenJade_DSSSL16SerialFOTBuilder12startRadicalERPNS_10FOTBuilderE
libostyle.so.0:_ZN14OpenJade_DSSSL16SerialFOTBuilder13endFenceCloseEv
libostyle.so.0:_ZN14OpenJade_DSSSL16SerialFOTBuilder13endMarkSerialEv
libostyle.so.0:_ZN14OpenJade_DSSSL16SerialFOTBuilder13startFractionERPNS_10FOTBuilderES3_
libostyle.so.0:_ZN14OpenJade_DSSSL16SerialFOTBuilder13startMarkOverEv
libostyle.so.0:_ZN14OpenJade_DSSSL16SerialFOTBuilder14endFenceSerialEv
libostyle.so.0:_ZN14OpenJade_DSSSL16SerialFOTBuilder14startExtensionERKNS_10FOTBuilder24CompoundExtensionFlowObjERKN14OpenJade_Grove7NodePtrERN6OpenSP6VectorIPS1_EE
libostyle.so.0:_ZN14OpenJade_DSSSL16SerialFOTBuilder14startFenceOpenEv
libostyle.so.0:_ZN14OpenJade_DSSSL16SerialFOTBuilder14startMarkUnderEv
libostyle.so.0:_ZN14OpenJade_DSSSL16SerialFOTBuilder14startMultiModeEPKNS_10FOTBuilder9MultiModeERKN6OpenSP6VectorIS2_EERNS6_IPS1_EE
libostyle.so.0:_ZN14OpenJade_DSSSL16SerialFOTBuilder14startTablePartERKNS_10FOTBuilder10DisplayNICERPS1_S6_
libostyle.so.0:_ZN14OpenJade_DSSSL16SerialFOTBuilder15endMathOperatorEv
libostyle.so.0:_ZN14OpenJade_DSSSL16SerialFOTBuilder15endScriptMidSubEv
libostyle.so.0:_ZN14OpenJade_DSSSL16SerialFOTBuilder15endScriptMidSupEv
libostyle.so.0:_ZN14OpenJade_DSSSL16SerialFOTBuilder15endScriptPreSubEv
libostyle.so.0:_ZN14OpenJade_DSSSL16SerialFOTBuilder15endScriptPreSupEv
libostyle.so.0:_ZN14OpenJade_DSSSL16SerialFOTBuilder15endScriptSerialEv
libostyle.so.0:_ZN14OpenJade_DSSSL16SerialFOTBuilder15startFenceCloseEv
libostyle.so.0:_ZN14OpenJade_DSSSL16SerialFOTBuilder15startMarkSerialEv
libostyle.so.0:_ZN14OpenJade_DSSSL16SerialFOTBuilder16endMultiModeModeEv
libostyle.so.0:_ZN14OpenJade_DSSSL16SerialFOTBuilder16endRadicalDegreeEv
libostyle.so.0:_ZN14OpenJade_DSSSL16SerialFOTBuilder16endRadicalSerialEv
libostyle.so.0:_ZN14OpenJade_DSSSL16SerialFOTBuilder16endScriptPostSubEv
libostyle.so.0:_ZN14OpenJade_DSSSL16SerialFOTBuilder16endScriptPostSupEv
libostyle.so.0:_ZN14OpenJade_DSSSL16SerialFOTBuilder16startFenceSerialEv
libostyle.so.0:_ZN14OpenJade_DSSSL16SerialFOTBuilder17endFractionSerialEv
libostyle.so.0:_ZN14OpenJade_DSSSL16SerialFOTBuilder17startMathOperatorERPNS_10FOTBuilderES3_S3_
libostyle.so.0:_ZN14OpenJade_DSSSL16SerialFOTBuilder17startScriptMidSubEv
libostyle.so.0:_ZN14OpenJade_DSSSL16SerialFOTBuilder17startScriptMidSupEv
libostyle.so.0:_ZN14OpenJade_DSSSL16SerialFOTBuilder17startScriptPreSubEv
libostyle.so.0:_ZN14OpenJade_DSSSL16SerialFOTBuilder17startScriptPreSupEv
libostyle.so.0:_ZN14OpenJade_DSSSL16SerialFOTBuilder17startScriptSerialEv
libostyle.so.0:_ZN14OpenJade_DSSSL16SerialFOTBuilder18endExtensionSerialERKNS_10FOTBuilder24CompoundExtensionFlowObjE
libostyle.so.0:_ZN14OpenJade_DSSSL16SerialFOTBuilder18endExtensionStreamERKN6OpenSP6StringIjEE
libostyle.so.0:_ZN14OpenJade_DSSSL16SerialFOTBuilder18endMultiModeSerialEv
libostyle.so.0:_ZN14OpenJade_DSSSL16SerialFOTBuilder18endTablePartFooterEv
libostyle.so.0:_ZN14OpenJade_DSSSL16SerialFOTBuilder18endTablePartHeaderEv
libostyle.so.0:_ZN14OpenJade_DSSSL16SerialFOTBuilder18endTablePartSerialEv
libostyle.so.0:_ZN14OpenJade_DSSSL16SerialFOTBuilder18startMultiModeModeERKNS_10FOTBuilder9MultiModeE
libostyle.so.0:_ZN14OpenJade_DSSSL16SerialFOTBuilder18startRadicalDegreeEv
libostyle.so.0:_ZN14OpenJade_DSSSL16SerialFOTBuilder18startRadicalSerialEv
libostyle.so.0:_ZN14OpenJade_DSSSL16SerialFOTBuilder18startScriptPostSubEv
libostyle.so.0:_ZN14OpenJade_DSSSL16SerialFOTBuilder18startScriptPostSupEv
libostyle.so.0:_ZN14OpenJade_DSSSL16SerialFOTBuilder19startFractionSerialEv
libostyle.so.0:_ZN14OpenJade_DSSSL16SerialFOTBuilder20endFractionNumeratorEv
libostyle.so.0:_ZN14OpenJade_DSSSL16SerialFOTBuilder20startExtensionSerialERKNS_10FOTBuilder24CompoundExtensionFlowObjERKN14OpenJade_Grove7NodePtrE
libostyle.so.0:_ZN14OpenJade_DSSSL16SerialFOTBuilder20startExtensionStreamERKN6OpenSP6StringIjEE
libostyle.so.0:_ZN14OpenJade_DSSSL16SerialFOTBuilder20startMultiModeSerialEPKNS_10FOTBuilder9MultiModeE
libostyle.so.0:_ZN14OpenJade_DSSSL16SerialFOTBuilder20startTablePartFooterEv
libostyle.so.0:_ZN14OpenJade_DSSSL16SerialFOTBuilder20startTablePartHeaderEv
libostyle.so.0:_ZN14OpenJade_DSSSL16SerialFOTBuilder20startTablePartSerialERKNS_10FOTBuilder10DisplayNICE
libostyle.so.0:_ZN14OpenJade_DSSSL16SerialFOTBuilder21endMathOperatorSerialEv
libostyle.so.0:_ZN14OpenJade_DSSSL16SerialFOTBuilder21endSimplePageSequenceEv
libostyle.so.0:_ZN14OpenJade_DSSSL16SerialFOTBuilder22endFractionDenominatorEv
libostyle.so.0:_ZN14OpenJade_DSSSL16SerialFOTBuilder22startFractionNumeratorEv
libostyle.so.0:_ZN14OpenJade_DSSSL16SerialFOTBuilder23endMathOperatorOperatorEv
libostyle.so.0:_ZN14OpenJade_DSSSL16SerialFOTBuilder23startMathOperatorSerialEv
libostyle.so.0:_ZN14OpenJade_DSSSL16SerialFOTBuilder23startSimplePageSequenceEPPNS_10FOTBuilderE
libostyle.so.0:_ZN14OpenJade_DSSSL16SerialFOTBuilder24startFractionDenominatorEv
libostyle.so.0:_ZN14OpenJade_DSSSL16SerialFOTBuilder25endMathOperatorLowerLimitEv
libostyle.so.0:_ZN14OpenJade_DSSSL16SerialFOTBuilder25endMathOperatorUpperLimitEv
libostyle.so.0:_ZN14OpenJade_DSSSL16SerialFOTBuilder25startMathOperatorOperatorEv
libostyle.so.0:_ZN14OpenJade_DSSSL16SerialFOTBuilder27endSimplePageSequenceSerialEv
libostyle.so.0:_ZN14OpenJade_DSSSL16SerialFOTBuilder27startMathOperatorLowerLimitEv
libostyle.so.0:_ZN14OpenJade_DSSSL16SerialFOTBuilder27startMathOperatorUpperLimitEv
libostyle.so.0:_ZN14OpenJade_DSSSL16SerialFOTBuilder29startSimplePageSequenceSerialEv
libostyle.so.0:_ZN14OpenJade_DSSSL16SerialFOTBuilder33endSimplePageSequenceHeaderFooterEj
libostyle.so.0:_ZN14OpenJade_DSSSL16SerialFOTBuilder33endSimplePageSequenceHeaderFooterEv
libostyle.so.0:_ZN14OpenJade_DSSSL16SerialFOTBuilder35startSimplePageSequenceHeaderFooterEj
libostyle.so.0:_ZN14OpenJade_DSSSL16SerialFOTBuilder36endAllSimplePageSequenceHeaderFooterEv
libostyle.so.0:_ZN14OpenJade_DSSSL16SerialFOTBuilder7endMarkEv
libostyle.so.0:_ZN14OpenJade_DSSSL16SerialFOTBuilder8endFenceEv
libostyle.so.0:_ZN14OpenJade_DSSSL16SerialFOTBuilder9endScriptEv
libostyle.so.0:_ZN14OpenJade_DSSSL16SerialFOTBuilder9startMarkERPNS_10FOTBuilderES3_
libostyle.so.0:_ZN14OpenJade_DSSSL16SerialFOTBuilderC1Ev
libostyle.so.0:_ZN14OpenJade_DSSSL16SerialFOTBuilderC2Ev
libostyle.so.0:_ZN14OpenJade_DSSSL16SetImmediateInsnC1EiN6OpenSP8ConstPtrINS_4InsnEEE
libostyle.so.0:_ZN14OpenJade_DSSSL16SetImmediateInsnC2EiN6OpenSP8ConstPtrINS_4InsnEEE
libostyle.so.0:_ZN14OpenJade_DSSSL16SosofoAppendInsnC1EmN6OpenSP8ConstPtrINS_4InsnEEE
libostyle.so.0:_ZN14OpenJade_DSSSL16SosofoAppendInsnC2EmN6OpenSP8ConstPtrINS_4InsnEEE
libostyle.so.0:_ZN14OpenJade_DSSSL16SqrtPrimitiveObj13primitiveCallEiPPNS_5ELObjERNS_11EvalContextERNS_11InterpreterERKN6OpenSP8LocationE
libostyle.so.0:_ZN14OpenJade_DSSSL16StartRadicalCall4emitERNS_10FOTBuilderE
libostyle.so.0:_ZN14OpenJade_DSSSL16StartRadicalCallC1ERPNS_10FOTBuilderE
libostyle.so.0:_ZN14OpenJade_DSSSL16StartRadicalCallC2ERPNS_10FOTBuilderE
libostyle.so.0:_ZN14OpenJade_DSSSL16StringInheritedCC1EPKNS_10IdentifierEjPKjm
libostyle.so.0:_ZN14OpenJade_DSSSL16StringInheritedCC1EPKNS_10IdentifierEjRKN6OpenSP6StringIjEE
libostyle.so.0:_ZN14OpenJade_DSSSL16StringInheritedCC2EPKNS_10IdentifierEjPKjm
libostyle.so.0:_ZN14OpenJade_DSSSL16StringInheritedCC2EPKNS_10IdentifierEjRKN6OpenSP6StringIjEE
libostyle.so.0:_ZN14OpenJade_DSSSL16SymbolInheritedCC1EPKNS_10IdentifierEjNS_10FOTBuilder6SymbolE
libostyle.so.0:_ZN14OpenJade_DSSSL16SymbolInheritedCC2EPKNS_10IdentifierEjNS_10FOTBuilder6SymbolE
libostyle.so.0:_ZN14OpenJade_DSSSL16TimePrimitiveObj13primitiveCallEiPPNS_5ELObjERNS_11EvalContextERNS_11InterpreterERKN6OpenSP8LocationE
libostyle.so.0:_ZN14OpenJade_DSSSL17ApplyPrimitiveObj4callERNS_2VMERKN6OpenSP8LocationEPKNS_4InsnE
libostyle.so.0:_ZN14OpenJade_DSSSL17ApplyPrimitiveObj7shuffleERNS_2VMERKN6OpenSP8LocationE
libostyle.so.0:_ZN14OpenJade_DSSSL17ApplyPrimitiveObj8tailCallERNS_2VMERKN6OpenSP8LocationEi
libostyle.so.0:_ZN14OpenJade_DSSSL17ApplyPrimitiveObjC1Ev
libostyle.so.0:_ZN14OpenJade_DSSSL17ApplyPrimitiveObjC2Ev
libostyle.so.0:_ZN14OpenJade_DSSSL17AssocPrimitiveObj13primitiveCallEiPPNS_5ELObjERNS_11EvalContextERNS_11InterpreterERKN6OpenSP8LocationE
libostyle.so.0:_ZN14OpenJade_DSSSL17CIEAColorSpaceObj9makeColorEiPPNS_5ELObjERNS_11InterpreterERKN6OpenSP8LocationE
libostyle.so.0:_ZN14OpenJade_DSSSL17CIEAColorSpaceObjC1EPKdS2_S2_PNS_11FunctionObjES2_S2_PS4_S2_
libostyle.so.0:_ZN14OpenJade_DSSSL17CIEAColorSpaceObjC2EPKdS2_S2_PNS_11FunctionObjES2_S2_PS4_S2_
libostyle.so.0:_ZN14OpenJade_DSSSL17CIEAColorSpaceObjD0Ev
libostyle.so.0:_ZN14OpenJade_DSSSL17CIEAColorSpaceObjD1Ev
libostyle.so.0:_ZN14OpenJade_DSSSL17CIEAColorSpaceObjD2Ev
libostyle.so.0:_ZN14OpenJade_DSSSL17ClosureSetBoxInsnC1EiRKN6OpenSP8LocationENS1_8ConstPtrINS_4InsnEEE
libostyle.so.0:_ZN14OpenJade_DSSSL17ClosureSetBoxInsnC2EiRKN6OpenSP8LocationENS1_8ConstPtrINS_4InsnEEE
libostyle.so.0:_ZN14OpenJade_DSSSL17ColorPrimitiveObj13primitiveCallEiPPNS_5ELObjERNS_11EvalContextERNS_11InterpreterERKN6OpenSP8LocationE
libostyle.so.0:_ZN14OpenJade_DSSSL17DebugPrimitiveObj13primitiveCallEiPPNS_5ELObjERNS_11EvalContextERNS_11InterpreterERKN6OpenSP8LocationE
libostyle.so.0:_ZN14OpenJade_DSSSL17DeviceRGBColorObjC1Ehhh
libostyle.so.0:_ZN14OpenJade_DSSSL17DeviceRGBColorObjC2Ehhh
libostyle.so.0:_ZN14OpenJade_DSSSL17EqualPrimitiveObj13primitiveCallEiPPNS_5ELObjERNS_11EvalContextERNS_11InterpreterERKN6OpenSP8LocationE
libostyle.so.0:_ZN14OpenJade_DSSSL17ErrorPrimitiveObj13primitiveCallEiPPNS_5ELObjERNS_11EvalContextERNS_11InterpreterERKN6OpenSP8LocationE
libostyle.so.0:_ZN14OpenJade_DSSSL17FloorPrimitiveObj13primitiveCallEiPPNS_5ELObjERNS_11EvalContextERNS_11InterpreterERKN6OpenSP8LocationE
libostyle.so.0:_ZN14OpenJade_DSSSL17IntegerInheritedCC1EPKNS_10IdentifierEjl
libostyle.so.0:_ZN14OpenJade_DSSSL17IntegerInheritedCC2EPKNS_10IdentifierEjl
libostyle.so.0:_ZN14OpenJade_DSSSL17IsEqvPrimitiveObj13primitiveCallEiPPNS_5ELObjERNS_11EvalContextERNS_11InterpreterERKN6OpenSP8LocationE
libostyle.so.0:_ZN14OpenJade_DSSSL17IsOddPrimitiveObj13primitiveCallEiPPNS_5ELObjERNS_11EvalContextERNS_11InterpreterERKN6OpenSP8LocationE
libostyle.so.0:_ZN14OpenJade_DSSSL17LetStarExpression12compileInitsERNS_11InterpreterERKNS_11EnvironmentERKNS_12BoundVarListEmiRKN6OpenSP8ConstPtrINS_4InsnEEE
libostyle.so.0:_ZN14OpenJade_DSSSL17LetStarExpression7compileERNS_11InterpreterERKNS_11EnvironmentEiRKN6OpenSP8ConstPtrINS_4InsnEEE
libostyle.so.0:_ZN14OpenJade_DSSSL17LetStarExpressionC1ERN6OpenSP6VectorIPKNS_10IdentifierEEERNS1_8NCVectorINS1_5OwnerINS_10ExpressionEEEEERSB_RKNS1_8LocationE
libostyle.so.0:_ZN14OpenJade_DSSSL17LetStarExpressionC2ERN6OpenSP6VectorIPKNS_10IdentifierEEERNS1_8NCVectorINS1_5OwnerINS_10ExpressionEEEEERSB_RKNS1_8LocationE
libostyle.so.0:_ZN14OpenJade_DSSSL17Letter2InheritedCC1EPKNS_10IdentifierEjj
libostyle.so.0:_ZN14OpenJade_DSSSL17Letter2InheritedCC2EPKNS_10IdentifierEjj
libostyle.so.0:_ZN14OpenJade_DSSSL17MarginaliaFlowObj12processInnerERNS_14ProcessContextE
libostyle.so.0:_ZN14OpenJade_DSSSL17MinusPrimitiveObj13primitiveCallEiPPNS_5ELObjERNS_11EvalContextERNS_11InterpreterERKN6OpenSP8LocationE
libostyle.so.0:_ZN14OpenJade_DSSSL17PageTypeSosofoObj7processERNS_14ProcessContextE
libostyle.so.0:_ZN14OpenJade_DSSSL17PageTypeSosofoObjC1EjPNS_9SosofoObjES2_
libostyle.so.0:_ZN14OpenJade_DSSSL17PageTypeSosofoObjC2EjPNS_9SosofoObjES2_
libostyle.so.0:_ZN14OpenJade_DSSSL17PrimitiveCallInsnC1EiPNS_12PrimitiveObjERKN6OpenSP8LocationENS3_8ConstPtrINS_4InsnEEE
libostyle.so.0:_ZN14OpenJade_DSSSL17PrimitiveCallInsnC2EiPNS_12PrimitiveObjERKN6OpenSP8LocationENS3_8ConstPtrINS_4InsnEEE
libostyle.so.0:_ZN14OpenJade_DSSSL17RoundPrimitiveObj13primitiveCallEiPPNS_5ELObjERNS_11EvalContextERNS_11InterpreterERKN6OpenSP8LocationE
libostyle.so.0:_ZN14OpenJade_DSSSL17StartFractionCall4emitERNS_10FOTBuilderE
libostyle.so.0:_ZN14OpenJade_DSSSL17StartFractionCallC1ERPNS_10FOTBuilderES3_
libostyle.so.0:_ZN14OpenJade_DSSSL17StartFractionCallC2ERPNS_10FOTBuilderES3_
libostyle.so.0:_ZN14OpenJade_DSSSL17XExptPrimitiveObj13primitiveCallEiPPNS_5ELObjERNS_11EvalContextERNS_11InterpreterERKN6OpenSP8LocationE
libostyle.so.0:_ZN14OpenJade_DSSSL18AppendPrimitiveObj13primitiveCallEiPPNS_5ELObjERNS_11EvalContextERNS_11InterpreterERKN6OpenSP8LocationE
libostyle.so.0:_ZN14OpenJade_DSSSL18CondFailExpression7compileERNS_11InterpreterERKNS_11EnvironmentEiRKN6OpenSP8ConstPtrINS_4InsnEEE
libostyle.so.0:_ZN14OpenJade_DSSSL18CondFailExpressionC1ERKN6OpenSP8LocationE
libostyle.so.0:_ZN14OpenJade_DSSSL18CondFailExpressionC2ERKN6OpenSP8LocationE
libostyle.so.0:_ZN14OpenJade_DSSSL18ConstantExpression7compileERNS_11InterpreterERKNS_11EnvironmentEiRKN6OpenSP8ConstPtrINS_4InsnEEE
libostyle.so.0:_ZN14OpenJade_DSSSL18ConstantExpression8optimizeERNS_11InterpreterERKNS_11EnvironmentERN6OpenSP5OwnerINS_10ExpressionEEE
libostyle.so.0:_ZN14OpenJade_DSSSL18ConstantExpressionC1EPNS_5ELObjERKN6OpenSP8LocationE
libostyle.so.0:_ZN14OpenJade_DSSSL18ConstantExpressionC2EPNS_5ELObjERKN6OpenSP8LocationE
libostyle.so.0:_ZN14OpenJade_DSSSL18DividePrimitiveObj13primitiveCallEiPPNS_5ELObjERNS_11EvalContextERNS_11InterpreterERKN6OpenSP8LocationE
libostyle.so.0:_ZN14OpenJade_DSSSL18FollowPrimitiveObj13primitiveCallEiPPNS_5ELObjERNS_11EvalContextERNS_11InterpreterERKN6OpenSP8LocationE
libostyle.so.0:_ZN14OpenJade_DSSSL18GlyphSubstTableObj17asGlyphSubstTableEv
libostyle.so.0:_ZN14OpenJade_DSSSL18GlyphSubstTableObjC1ERKN6OpenSP8ConstPtrINS_10FOTBuilder15GlyphSubstTableEEE
libostyle.so.0:_ZN14OpenJade_DSSSL18GlyphSubstTableObjC2ERKN6OpenSP8ConstPtrINS_10FOTBuilder15GlyphSubstTableEEE
libostyle.so.0:_ZN14OpenJade_DSSSL18IsCharPrimitiveObj13primitiveCallEiPPNS_5ELObjERNS_11EvalContextERNS_11InterpreterERKN6OpenSP8LocationE
libostyle.so.0:_ZN14OpenJade_DSSSL18IsEvenPrimitiveObj13primitiveCallEiPPNS_5ELObjERNS_11EvalContextERNS_11InterpreterERKN6OpenSP8LocationE
libostyle.so.0:_ZN14OpenJade_DSSSL18IsListPrimitiveObj13primitiveCallEiPPNS_5ELObjERNS_11EvalContextERNS_11InterpreterERKN6OpenSP8LocationE
libostyle.so.0:_ZN14OpenJade_DSSSL18IsNullPrimitiveObj13primitiveCallEiPPNS_5ELObjERNS_11EvalContextERNS_11InterpreterERKN6OpenSP8LocationE
libostyle.so.0:_ZN14OpenJade_DSSSL18IsPairPrimitiveObj13primitiveCallEiPPNS_5ELObjERNS_11EvalContextERNS_11InterpreterERKN6OpenSP8LocationE
libostyle.so.0:_ZN14OpenJade_DSSSL18IsRealPrimitiveObj13primitiveCallEiPPNS_5ELObjERNS_11EvalContextERNS_11InterpreterERKN6OpenSP8LocationE
libostyle.so.0:_ZN14OpenJade_DSSSL18IsZeroPrimitiveObj13primitiveCallEiPPNS_5ELObjERNS_11EvalContextERNS_11InterpreterERKN6OpenSP8LocationE
libostyle.so.0:_ZN14OpenJade_DSSSL18LengthPrimitiveObj13primitiveCallEiPPNS_5ELObjERNS_11EvalContextERNS_11InterpreterERKN6OpenSP8LocationE
libostyle.so.0:_ZN14OpenJade_DSSSL18MemberPrimitiveObj13primitiveCallEiPPNS_5ELObjERNS_11EvalContextERNS_11InterpreterERKN6OpenSP8LocationE
libostyle.so.0:_ZN14OpenJade_DSSSL18ModuloPrimitiveObj13primitiveCallEiPPNS_5ELObjERNS_11EvalContextERNS_11InterpreterERKN6OpenSP8LocationE
libostyle.so.0:_ZN14OpenJade_DSSSL18NextMatchSosofoObj7processERNS_14ProcessContextE
libostyle.so.0:_ZN14OpenJade_DSSSL18NextMatchSosofoObjC1EPNS_8StyleObjE
libostyle.so.0:_ZN14OpenJade_DSSSL18NextMatchSosofoObjC2EPNS_8StyleObjE
libostyle.so.0:_ZN14OpenJade_DSSSL18NodePtrNodeListObj12nodeListRestERNS_11EvalContextERNS_11InterpreterE
libostyle.so.0:_ZN14OpenJade_DSSSL18NodePtrNodeListObj13nodeListFirstERNS_11EvalContextERNS_11InterpreterE
libostyle.so.0:_ZN14OpenJade_DSSSL18NodePtrNodeListObj20optSingletonNodeListERNS_11EvalContextERNS_11InterpreterERN14OpenJade_Grove7NodePtrE
libostyle.so.0:_ZN14OpenJade_DSSSL18NodePtrNodeListObjC1ERKN14OpenJade_Grove7NodePtrE
libostyle.so.0:_ZN14OpenJade_DSSSL18NodePtrNodeListObjC1Ev
libostyle.so.0:_ZN14OpenJade_DSSSL18NodePtrNodeListObjC2ERKN14OpenJade_Grove7NodePtrE
libostyle.so.0:_ZN14OpenJade_DSSSL18NodePtrNodeListObjC2Ev
libostyle.so.0:_ZN14OpenJade_DSSSL18OverriddenStyleObjC1EPNS_13BasicStyleObjEPNS_8StyleObjE
libostyle.so.0:_ZN14OpenJade_DSSSL18OverriddenStyleObjC2EPNS_13BasicStyleObjEPNS_8StyleObjE
libostyle.so.0:_ZN14OpenJade_DSSSL18ParentPrimitiveObj13primitiveCallEiPPNS_5ELObjERNS_11EvalContextERNS_11InterpreterERKN6OpenSP8LocationE
libostyle.so.0:_ZN14OpenJade_DSSSL18PrecedPrimitiveObj13primitiveCallEiPPNS_5ELObjERNS_11EvalContextERNS_11InterpreterERKN6OpenSP8LocationE
libostyle.so.0:_ZN14OpenJade_DSSSL18PublicIdInheritedCC1EPKNS_10IdentifierEjPKc
libostyle.so.0:_ZN14OpenJade_DSSSL18PublicIdInheritedCC2EPKNS_10IdentifierEjPKc
libostyle.so.0:_ZN14OpenJade_DSSSL18ReverseNodeListObj11nodeListRefElRNS_11EvalContextERNS_11InterpreterE
libostyle.so.0:_ZN14OpenJade_DSSSL18ReverseNodeListObj12nodeListRestERNS_11EvalContextERNS_11InterpreterE
libostyle.so.0:_ZN14OpenJade_DSSSL18ReverseNodeListObj13nodeListFirstERNS_11EvalContextERNS_11InterpreterE
libostyle.so.0:_ZN14OpenJade_DSSSL18ReverseNodeListObj14nodeListLengthERNS_11EvalContextERNS_11InterpreterE
libostyle.so.0:_ZN14OpenJade_DSSSL18ReverseNodeListObj15nodeListReverseERNS_11EvalContextERNS_11InterpreterE
libostyle.so.0:_ZN14OpenJade_DSSSL18ReverseNodeListObj8reversedERNS_11EvalContextERNS_11InterpreterE
libostyle.so.0:_ZN14OpenJade_DSSSL18ReverseNodeListObjC1EPNS_11NodeListObjE
libostyle.so.0:_ZN14OpenJade_DSSSL18ReverseNodeListObjC2EPNS_11NodeListObjE
libostyle.so.0:_ZN14OpenJade_DSSSL18SequenceExpression13markBoundVarsERNS_12BoundVarListEb
libostyle.so.0:_ZN14OpenJade_DSSSL18SequenceExpression7compileERNS_11InterpreterERKNS_11EnvironmentEiRKN6OpenSP8ConstPtrINS_4InsnEEE
libostyle.so.0:_ZN14OpenJade_DSSSL18SequenceExpression8optimizeERNS_11InterpreterERKNS_11EnvironmentERN6OpenSP5OwnerINS_10ExpressionEEE
libostyle.so.0:_ZN14OpenJade_DSSSL18SequenceExpressionC1ERN6OpenSP8NCVectorINS1_5OwnerINS_10ExpressionEEEEERKNS1_8LocationE
libostyle.so.0:_ZN14OpenJade_DSSSL18SequenceExpressionC2ERN6OpenSP8NCVectorINS1_5OwnerINS_10ExpressionEEEEERKNS1_8LocationE
libostyle.so.0:_ZN14OpenJade_DSSSL18SiblingNodeListObj12nodeListRestERNS_11EvalContextERNS_11InterpreterE
libostyle.so.0:_ZN14OpenJade_DSSSL18SiblingNodeListObj13nodeListFirstERNS_11EvalContextERNS_11InterpreterE
libostyle.so.0:_ZN14OpenJade_DSSSL18SiblingNodeListObj17nodeListChunkRestERNS_11EvalContextERNS_11InterpreterERb
libostyle.so.0:_ZN14OpenJade_DSSSL18SiblingNodeListObjC1ERKN14OpenJade_Grove7NodePtrES4_
libostyle.so.0:_ZN14OpenJade_DSSSL18SiblingNodeListObjC2ERKN14OpenJade_Grove7NodePtrES4_
libostyle.so.0:_ZN14OpenJade_DSSSL18StartExtensionCall4emitERNS_10FOTBuilderE
libostyle.so.0:_ZN14OpenJade_DSSSL18StartExtensionCallC1ERKNS_10FOTBuilder24CompoundExtensionFlowObjERKN14OpenJade_Grove7NodePtrERN6OpenSP6VectorIPS1_EE
libostyle.so.0:_ZN14OpenJade_DSSSL18StartExtensionCallC2ERKNS_10FOTBuilder24CompoundExtensionFlowObjERKN14OpenJade_Grove7NodePtrERN6OpenSP6VectorIPS1_EE
libostyle.so.0:_ZN14OpenJade_DSSSL18StartMultiModeCall4emitERNS_10FOTBuilderE
libostyle.so.0:_ZN14OpenJade_DSSSL18StartMultiModeCallC1EPKNS_10FOTBuilder9MultiModeERKN6OpenSP6VectorIS2_EERNS6_IPS1_EE
libostyle.so.0:_ZN14OpenJade_DSSSL18StartMultiModeCallC2EPKNS_10FOTBuilder9MultiModeERKN6OpenSP6VectorIS2_EERNS6_IPS1_EE
libostyle.so.0:_ZN14OpenJade_DSSSL18StartTablePartCall4emitERNS_10FOTBuilderE
libostyle.so.0:_ZN14OpenJade_DSSSL18StartTablePartCallC1ERKNS_10FOTBuilder10DisplayNICERPS1_S6_
libostyle.so.0:_ZN14OpenJade_DSSSL18StartTablePartCallC2ERKNS_10FOTBuilder10DisplayNICERPS1_S6_
libostyle.so.0:_ZN14OpenJade_DSSSL18StringPrimitiveObj13primitiveCallEiPPNS_5ELObjERNS_11EvalContextERNS_11InterpreterERKN6OpenSP8LocationE
libostyle.so.0:_ZN14OpenJade_DSSSL18VariableExpression13markBoundVarsERNS_12BoundVarListEb
libostyle.so.0:_ZN14OpenJade_DSSSL18VariableExpression7compileERNS_11InterpreterERKNS_11EnvironmentEiRKN6OpenSP8ConstPtrINS_4InsnEEE
libostyle.so.0:_ZN14OpenJade_DSSSL18VariableExpression8optimizeERNS_11InterpreterERKNS_11EnvironmentERN6OpenSP5OwnerINS_10ExpressionEEE
libostyle.so.0:_ZN14OpenJade_DSSSL18VariableExpressionC1EPKNS_10IdentifierERKN6OpenSP8LocationE
libostyle.so.0:_ZN14OpenJade_DSSSL18VariableExpressionC2EPKNS_10IdentifierERKN6OpenSP8LocationE
libostyle.so.0:_ZN14OpenJade_DSSSL18VectorPrimitiveObj13primitiveCallEiPPNS_5ELObjERNS_11EvalContextERNS_11InterpreterERKN6OpenSP8LocationE
libostyle.so.0:_ZN14OpenJade_DSSSL18WithModeExpression13markBoundVarsERNS_12BoundVarListEb
libostyle.so.0:_ZN14OpenJade_DSSSL18WithModeExpression7compileERNS_11InterpreterERKNS_11EnvironmentEiRKN6OpenSP8ConstPtrINS_4InsnEEE
libostyle.so.0:_ZN14OpenJade_DSSSL18WithModeExpressionC1EPKNS_14ProcessingModeERN6OpenSP5OwnerINS_10ExpressionEEERKNS4_8LocationE
libostyle.so.0:_ZN14OpenJade_DSSSL18WithModeExpressionC2EPKNS_14ProcessingModeERN6OpenSP5OwnerINS_10ExpressionEEERKNS4_8LocationE
libostyle.so.0:_ZN14OpenJade_DSSSL19ActualCPrimitiveObj13primitiveCallEiPPNS_5ELObjERNS_11EvalContextERNS_11InterpreterERKN6OpenSP8LocationE
libostyle.so.0:_ZN14OpenJade_DSSSL19CIEABCColorSpaceObj9makeColorEiPPNS_5ELObjERNS_11InterpreterERKN6OpenSP8LocationE
libostyle.so.0:_ZN14OpenJade_DSSSL19CIEABCColorSpaceObjC1EPKdS2_S2_PPNS_11FunctionObjES2_S2_S5_S2_
libostyle.so.0:_ZN14OpenJade_DSSSL19CIEABCColorSpaceObjC2EPKdS2_S2_PPNS_11FunctionObjES2_S2_S5_S2_
libostyle.so.0:_ZN14OpenJade_DSSSL19CIEABCColorSpaceObjD0Ev
libostyle.so.0:_ZN14OpenJade_DSSSL19CIEABCColorSpaceObjD1Ev
libostyle.so.0:_ZN14OpenJade_DSSSL19CIEABCColorSpaceObjD2Ev
libostyle.so.0:_ZN14OpenJade_DSSSL19CIELABColorSpaceObj9makeColorEiPPNS_5ELObjERNS_11InterpreterERKN6OpenSP8LocationE
libostyle.so.0:_ZN14OpenJade_DSSSL19CIELABColorSpaceObjC1EPKdS2_S2_
libostyle.so.0:_ZN14OpenJade_DSSSL19CIELABColorSpaceObjC2EPKdS2_S2_
libostyle.so.0:_ZN14OpenJade_DSSSL19CIELABColorSpaceObjD0Ev
libostyle.so.0:_ZN14OpenJade_DSSSL19CIELABColorSpaceObjD1Ev
libostyle.so.0:_ZN14OpenJade_DSSSL19CIELABColorSpaceObjD2Ev
libostyle.so.0:_ZN14OpenJade_DSSSL19CIELUVColorSpaceObj9makeColorEiPPNS_5ELObjERNS_11InterpreterERKN6OpenSP8LocationE
libostyle.so.0:_ZN14OpenJade_DSSSL19CIELUVColorSpaceObjC1EPKdS2_S2_
libostyle.so.0:_ZN14OpenJade_DSSSL19CIELUVColorSpaceObjC2EPKdS2_S2_
libostyle.so.0:_ZN14OpenJade_DSSSL19CIELUVColorSpaceObjD0Ev
libostyle.so.0:_ZN14OpenJade_DSSSL19CIELUVColorSpaceObjD1Ev
libostyle.so.0:_ZN14OpenJade_DSSSL19CIELUVColorSpaceObjD2Ev
libostyle.so.0:_ZN14OpenJade_DSSSL19CIEXYZColorSpaceObj9makeColorEPKdRNS_11InterpreterE
libostyle.so.0:_ZN14OpenJade_DSSSL19CIEXYZColorSpaceObjC1EPKdS2_
libostyle.so.0:_ZN14OpenJade_DSSSL19CIEXYZColorSpaceObjC2EPKdS2_
libostyle.so.0:_ZN14OpenJade_DSSSL19CIEXYZColorSpaceObjD0Ev
libostyle.so.0:_ZN14OpenJade_DSSSL19CIEXYZColorSpaceObjD1Ev
libostyle.so.0:_ZN14OpenJade_DSSSL19CIEXYZColorSpaceObjD2Ev
libostyle.so.0:_ZN14OpenJade_DSSSL19CeilingPrimitiveObj13primitiveCallEiPPNS_5ELObjERNS_11EvalContextERNS_11InterpreterERKN6OpenSP8LocationE
libostyle.so.0:_ZN14OpenJade_DSSSL19ContentMapSosofoObj7processERNS_14ProcessContextE
libostyle.so.0:_ZN14OpenJade_DSSSL19ContentMapSosofoObjC1EPNS_5ELObjEPKN6OpenSP8LocationEPNS_9SosofoObjE
libostyle.so.0:_ZN14OpenJade_DSSSL19ContentMapSosofoObjC2EPNS_5ELObjEPKN6OpenSP8LocationEPNS_9SosofoObjE
libostyle.so.0:_ZN14OpenJade_DSSSL19DisplayGroupFlowObj12processInnerERNS_14ProcessContextE
libostyle.so.0:_ZN14OpenJade_DSSSL19DisplayGroupFlowObj16setNonInheritedCEPKNS_10IdentifierEPNS_5ELObjERKN6OpenSP8LocationERNS_11InterpreterE
libostyle.so.0:_ZN14OpenJade_DSSSL19DisplayGroupFlowObjC1ERKS0_
libostyle.so.0:_ZN14OpenJade_DSSSL19DisplayGroupFlowObjC1Ev
libostyle.so.0:_ZN14OpenJade_DSSSL19DisplayGroupFlowObjC2ERKS0_
libostyle.so.0:_ZN14OpenJade_DSSSL19DisplayGroupFlowObjC2Ev
libostyle.so.0:_ZN14OpenJade_DSSSL19GlyphIdPrimitiveObj13primitiveCallEiPPNS_5ELObjERNS_11EvalContextERNS_11InterpreterERKN6OpenSP8LocationE
libostyle.so.0:_ZN14OpenJade_DSSSL19GreaterPrimitiveObj13primitiveCallEiPPNS_5ELObjERNS_11EvalContextERNS_11InterpreterERKN6OpenSP8LocationE
libostyle.so.0:_ZN14OpenJade_DSSSL19IsColorPrimitiveObj13primitiveCallEiPPNS_5ELObjERNS_11EvalContextERNS_11InterpreterERKN6OpenSP8LocationE
libostyle.so.0:_ZN14OpenJade_DSSSL19IsEqualPrimitiveObj13primitiveCallEiPPNS_5ELObjERNS_11EvalContextERNS_11InterpreterERKN6OpenSP8LocationE
libostyle.so.0:_ZN14OpenJade_DSSSL19IsExactPrimitiveObj13primitiveCallEiPPNS_5ELObjERNS_11EvalContextERNS_11InterpreterERKN6OpenSP8LocationE
libostyle.so.0:_ZN14OpenJade_DSSSL19IsStylePrimitiveObj13primitiveCallEiPPNS_5ELObjERNS_11EvalContextERNS_11InterpreterERKN6OpenSP8LocationE
libostyle.so.0:_ZN14OpenJade_DSSSL19ListRefPrimitiveObj13primitiveCallEiPPNS_5ELObjERNS_11EvalContextERNS_11InterpreterERKN6OpenSP8LocationE
libostyle.so.0:_ZN14OpenJade_DSSSL19LiteralPrimitiveObj13primitiveCallEiPPNS_5ELObjERNS_11EvalContextERNS_11InterpreterERKN6OpenSP8LocationE
libostyle.so.0:_ZN14OpenJade_DSSSL19MathOperatorFlowObj12processInnerERNS_14ProcessContextE
libostyle.so.0:_ZN14OpenJade_DSSSL19PageNumberSosofoObj7processERNS_14ProcessContextE
libostyle.so.0:_ZN14OpenJade_DSSSL19ReversePrimitiveObj13primitiveCallEiPPNS_5ELObjERNS_11EvalContextERNS_11InterpreterERKN6OpenSP8LocationE
libostyle.so.0:_ZN14OpenJade_DSSSL19SetImplicitCharInsnC1ERKN6OpenSP8LocationENS1_8ConstPtrINS_4InsnEEE
libostyle.so.0:_ZN14OpenJade_DSSSL19SetImplicitCharInsnC2ERKN6OpenSP8LocationENS1_8ConstPtrINS_4InsnEEE
libostyle.so.0:_ZN14OpenJade_DSSSL19UnresolvedLengthObj17resolveQuantitiesEbRNS_11InterpreterERKN6OpenSP8LocationE
libostyle.so.0:_ZN14OpenJade_DSSSL19UnresolvedLengthObjC1EliPNS_4UnitE
libostyle.so.0:_ZN14OpenJade_DSSSL19UnresolvedLengthObjC2EliPNS_4UnitE
libostyle.so.0:_ZN14OpenJade_DSSSL20AncestorPrimitiveObj13primitiveCallEiPPNS_5ELObjERNS_11EvalContextERNS_11InterpreterERKN6OpenSP8LocationE
libostyle.so.0:_ZN14OpenJade_DSSSL20AssignmentExpression13markBoundVarsERNS_12BoundVarListEb
libostyle.so.0:_ZN14OpenJade_DSSSL20AssignmentExpression7compileERNS_11InterpreterERKNS_11EnvironmentEiRKN6OpenSP8ConstPtrINS_4InsnEEE
libostyle.so.0:_ZN14OpenJade_DSSSL20AssignmentExpressionC1EPKNS_10IdentifierERN6OpenSP5OwnerINS_10ExpressionEEERKNS4_8LocationE
libostyle.so.0:_ZN14OpenJade_DSSSL20AssignmentExpressionC2EPKNS_10IdentifierERN6OpenSP5OwnerINS_10ExpressionEEERKNS4_8LocationE
libostyle.so.0:_ZN14OpenJade_DSSSL20CharLessPrimitiveObj13primitiveCallEiPPNS_5ELObjERNS_11EvalContextERNS_11InterpreterERKN6OpenSP8LocationE
libostyle.so.0:_ZN14OpenJade_DSSSL20ChildrenPrimitiveObj13primitiveCallEiPPNS_5ELObjERNS_11EvalContextERNS_11InterpreterERKN6OpenSP8LocationE
libostyle.so.0:_ZN14OpenJade_DSSSL20ContentMapSosofoInsnC1ERKN6OpenSP8LocationENS1_8ConstPtrINS_4InsnEEE
libostyle.so.0:_ZN14OpenJade_DSSSL20ContentMapSosofoInsnC2ERKN6OpenSP8LocationENS1_8ConstPtrINS_4InsnEEE
libostyle.so.0:_ZN14OpenJade_DSSSL20FunctionTailCallInsnC1EiPNS_11FunctionObjERKN6OpenSP8LocationEi
libostyle.so.0:_ZN14OpenJade_DSSSL20FunctionTailCallInsnC2EiPNS_11FunctionObjERKN6OpenSP8LocationEi
libostyle.so.0:_ZN14OpenJade_DSSSL20IsNumberPrimitiveObj13primitiveCallEiPPNS_5ELObjERNS_11EvalContextERNS_11InterpreterERKN6OpenSP8LocationE
libostyle.so.0:_ZN14OpenJade_DSSSL20IsSosofoPrimitiveObj13primitiveCallEiPPNS_5ELObjERNS_11EvalContextERNS_11InterpreterERKN6OpenSP8LocationE
libostyle.so.0:_ZN14OpenJade_DSSSL20IsStringPrimitiveObj13primitiveCallEiPPNS_5ELObjERNS_11EvalContextERNS_11InterpreterERKN6OpenSP8LocationE
libostyle.so.0:_ZN14OpenJade_DSSSL20IsSymbolPrimitiveObj13primitiveCallEiPPNS_5ELObjERNS_11EvalContextERNS_11InterpreterERKN6OpenSP8LocationE
libostyle.so.0:_ZN14OpenJade_DSSSL20IsVectorPrimitiveObj13primitiveCallEiPPNS_5ELObjERNS_11EvalContextERNS_11InterpreterERKN6OpenSP8LocationE
libostyle.so.0:_ZN14OpenJade_DSSSL20LanguagePrimitiveObj13primitiveCallEiPPNS_5ELObjERNS_11EvalContextERNS_11InterpreterERKN6OpenSP8LocationE
libostyle.so.0:_ZN14OpenJade_DSSSL20LengthSpecInheritedC8setValueEPNS_5ELObjERKN6OpenSP8LocationERNS_11InterpreterE
libostyle.so.0:_ZN14OpenJade_DSSSL20LengthSpecInheritedCC1EPKNS_10IdentifierEjl
libostyle.so.0:_ZN14OpenJade_DSSSL20LengthSpecInheritedCC2EPKNS_10IdentifierEjl
libostyle.so.0:_ZN14OpenJade_DSSSL20ListTailPrimitiveObj13primitiveCallEiPPNS_5ELObjERNS_11EvalContextERNS_11InterpreterERKN6OpenSP8LocationE
libostyle.so.0:_ZN14OpenJade_DSSSL20MultiplyPrimitiveObj13primitiveCallEiPPNS_5ELObjERNS_11EvalContextERNS_11InterpreterERKN6OpenSP8LocationE
libostyle.so.0:_ZN14OpenJade_DSSSL20NodeListPrimitiveObj13primitiveCallEiPPNS_5ELObjERNS_11EvalContextERNS_11InterpreterERKN6OpenSP8LocationE
libostyle.so.0:_ZN14OpenJade_DSSSL20ProcessNodeSosofoObj7processERNS_14ProcessContextE
libostyle.so.0:_ZN14OpenJade_DSSSL20ProcessNodeSosofoObjC1ERKN14OpenJade_Grove7NodePtrEPKNS_14ProcessingModeE
libostyle.so.0:_ZN14OpenJade_DSSSL20ProcessNodeSosofoObjC2ERKN14OpenJade_Grove7NodePtrEPKNS_14ProcessingModeE
libostyle.so.0:_ZN14OpenJade_DSSSL20QuasiquoteExpression13markBoundVarsERNS_12BoundVarListEb
libostyle.so.0:_ZN14OpenJade_DSSSL20QuasiquoteExpression7compileERNS_11InterpreterERKNS_11EnvironmentEiRKN6OpenSP8ConstPtrINS_4InsnEEE
libostyle.so.0:_ZN14OpenJade_DSSSL20QuasiquoteExpression8optimizeERNS_11InterpreterERKNS_11EnvironmentERN6OpenSP5OwnerINS_10ExpressionEEE
libostyle.so.0:_ZN14OpenJade_DSSSL20QuasiquoteExpressionC1ERN6OpenSP8NCVectorINS1_5OwnerINS_10ExpressionEEEEERNS1_6VectorIbEENS0_4TypeERKNS1_8LocationE
libostyle.so.0:_ZN14OpenJade_DSSSL20QuasiquoteExpressionC2ERN6OpenSP8NCVectorINS1_5OwnerINS_10ExpressionEEEEERNS1_6VectorIbEENS0_4TypeERKNS1_8LocationE
libostyle.so.0:_ZN14OpenJade_DSSSL20QuotientPrimitiveObj13primitiveCallEiPPNS_5ELObjERNS_11EvalContextERNS_11InterpreterERKN6OpenSP8LocationE
libostyle.so.0:_ZN14OpenJade_DSSSL20SetNonInheritedCInsnC1EPKNS_10IdentifierERKN6OpenSP8LocationENS4_8ConstPtrINS_4InsnEEE
libostyle.so.0:_ZN14OpenJade_DSSSL20SetNonInheritedCInsnC2EPKNS_10IdentifierERKN6OpenSP8LocationENS4_8ConstPtrINS_4InsnEEE
libostyle.so.0:_ZN14OpenJade_DSSSL20TimeLessPrimitiveObj13primitiveCallEiPPNS_5ELObjERNS_11EvalContextERNS_11InterpreterERKN6OpenSP8LocationE
libostyle.so.0:_ZN14OpenJade_DSSSL20TruncatePrimitiveObj13primitiveCallEiPPNS_5ELObjERNS_11EvalContextERNS_11InterpreterERKN6OpenSP8LocationE
libostyle.so.0:_ZN14OpenJade_DSSSL21AlignmentPointFlowObj12processInnerERNS_14ProcessContextE
libostyle.so.0:_ZN14OpenJade_DSSSL21DeviceKXColorSpaceObj9makeColorEiPPNS_5ELObjERNS_11InterpreterERKN6OpenSP8LocationE
libostyle.so.0:_ZN14OpenJade_DSSSL21DssslSpecEventHandler10PartHeader7resolveERS0_
libostyle.so.0:_ZN14OpenJade_DSSSL21DssslSpecEventHandler10PartHeader9setRefLocERKN6OpenSP8LocationE
libostyle.so.0:_ZN14OpenJade_DSSSL21DssslSpecEventHandler10PartHeaderC1EPNS0_3DocERKN6OpenSP6StringIjEE
libostyle.so.0:_ZN14OpenJade_DSSSL21DssslSpecEventHandler10PartHeaderC2EPNS0_3DocERKN6OpenSP6StringIjEE
libostyle.so.0:_ZN14OpenJade_DSSSL21DssslSpecEventHandler10endElementEPN6OpenSP15EndElementEventE
libostyle.so.0:_ZN14OpenJade_DSSSL21DssslSpecEventHandler11BodyElementD0Ev
libostyle.so.0:_ZN14OpenJade_DSSSL21DssslSpecEventHandler11BodyElementD1Ev
libostyle.so.0:_ZN14OpenJade_DSSSL21DssslSpecEventHandler11BodyElementD2Ev
libostyle.so.0:_ZN14OpenJade_DSSSL21DssslSpecEventHandler12ExternalPart7resolveERS0_
libostyle.so.0:_ZN14OpenJade_DSSSL21DssslSpecEventHandler12ExternalPartC1EPNS0_10PartHeaderE
libostyle.so.0:_ZN14OpenJade_DSSSL21DssslSpecEventHandler12ExternalPartC2EPNS0_10PartHeaderE
libostyle.so.0:_ZN14OpenJade_DSSSL21DssslSpecEventHandler12resolvePartsEPNS0_4PartERN6OpenSP6VectorIS2_EE
libostyle.so.0:_ZN14OpenJade_DSSSL21DssslSpecEventHandler12startElementEPN6OpenSP17StartElementEventE
libostyle.so.0:_ZN14OpenJade_DSSSL21DssslSpecEventHandler13attributeTextERKN6OpenSP17StartElementEventEPKc
libostyle.so.0:_ZN14OpenJade_DSSSL21DssslSpecEventHandler14declarationEndERKN6OpenSP15EndElementEventE
libostyle.so.0:_ZN14OpenJade_DSSSL21DssslSpecEventHandler15arcEventHandlerEPKN6OpenSP6StringIjEEPKNS1_8NotationERKNS1_6VectorIS3_EEPKNS1_10SubstTableE
libostyle.so.0:_ZN14OpenJade_DSSSL21DssslSpecEventHandler15attributeEntityERKN6OpenSP17StartElementEventEPKc
libostyle.so.0:_ZN14OpenJade_DSSSL21DssslSpecEventHandler15attributeStringERKN6OpenSP17StartElementEventEPKc
libostyle.so.0:_ZN14OpenJade_DSSSL21DssslSpecEventHandler16declarationStartERKN6OpenSP17StartElementEventE
libostyle.so.0:_ZN14OpenJade_DSSSL21DssslSpecEventHandler17EntityBodyElement15makeInputSourceERS0_RN6OpenSP5OwnerINS3_11InputSourceEEE
libostyle.so.0:_ZN14OpenJade_DSSSL21DssslSpecEventHandler17EntityBodyElementC1ERKN6OpenSP8ConstPtrINS2_6EntityEEE
libostyle.so.0:_ZN14OpenJade_DSSSL21DssslSpecEventHandler17EntityBodyElementC2ERKN6OpenSP8ConstPtrINS2_6EntityEEE
libostyle.so.0:_ZN14OpenJade_DSSSL21DssslSpecEventHandler17ExternalFirstPart7resolveERS0_
libostyle.so.0:_ZN14OpenJade_DSSSL21DssslSpecEventHandler17ExternalFirstPartC1EPNS0_3DocE
libostyle.so.0:_ZN14OpenJade_DSSSL21DssslSpecEventHandler17ExternalFirstPartC2EPNS0_3DocE
libostyle.so.0:_ZN14OpenJade_DSSSL21DssslSpecEventHandler18DeclarationElement10setContentERN6OpenSP4TextE
libostyle.so.0:_ZN14OpenJade_DSSSL21DssslSpecEventHandler18DeclarationElement15makeInputSourceERS0_RN6OpenSP5OwnerINS3_11InputSourceEEE
libostyle.so.0:_ZN14OpenJade_DSSSL21DssslSpecEventHandler18DeclarationElementC1ENS1_4TypeE
libostyle.so.0:_ZN14OpenJade_DSSSL21DssslSpecEventHandler18DeclarationElementC2ENS1_4TypeE
libostyle.so.0:_ZN14OpenJade_DSSSL21DssslSpecEventHandler20ImmediateBodyElement15makeInputSourceERS0_RN6OpenSP5OwnerINS3_11InputSourceEEE
libostyle.so.0:_ZN14OpenJade_DSSSL21DssslSpecEventHandler20ImmediateBodyElementC1ERN6OpenSP4TextE
libostyle.so.0:_ZN14OpenJade_DSSSL21DssslSpecEventHandler20ImmediateBodyElementC2ERN6OpenSP4TextE
libostyle.so.0:_ZN14OpenJade_DSSSL21DssslSpecEventHandler21styleSpecificationEndERKN6OpenSP15EndElementEventE
libostyle.so.0:_ZN14OpenJade_DSSSL21DssslSpecEventHandler23styleSpecificationStartERKN6OpenSP17StartElementEventE
libostyle.so.0:_ZN14OpenJade_DSSSL21DssslSpecEventHandler24externalSpecificationEndERKN6OpenSP15EndElementEventE
libostyle.so.0:_ZN14OpenJade_DSSSL21DssslSpecEventHandler25styleSpecificationBodyEndERKN6OpenSP15EndElementEventE
libostyle.so.0:_ZN14OpenJade_DSSSL21DssslSpecEventHandler26externalSpecificationStartERKN6OpenSP17StartElementEventE
libostyle.so.0:_ZN14OpenJade_DSSSL21DssslSpecEventHandler27styleSpecificationBodyStartERKN6OpenSP17StartElementEventE
libostyle.so.0:_ZN14OpenJade_DSSSL21DssslSpecEventHandler3Doc11setLocationERKN6OpenSP8LocationE
libostyle.so.0:_ZN14OpenJade_DSSSL21DssslSpecEventHandler3Doc16resolveFirstPartERS0_
libostyle.so.0:_ZN14OpenJade_DSSSL21DssslSpecEventHandler3Doc4loadERS0_
libostyle.so.0:_ZN14OpenJade_DSSSL21DssslSpecEventHandler3Doc6appendEPNS0_18DeclarationElementE
libostyle.so.0:_ZN14OpenJade_DSSSL21DssslSpecEventHandler3Doc7refPartERKN6OpenSP6StringIjEE
libostyle.so.0:_ZN14OpenJade_DSSSL21DssslSpecEventHandler3Doc7refPartERKN6OpenSP6StringIjEERKNS2_8LocationE
libostyle.so.0:_ZN14OpenJade_DSSSL21DssslSpecEventHandler3DocC1ERKN6OpenSP6StringIjEE
libostyle.so.0:_ZN14OpenJade_DSSSL21DssslSpecEventHandler3DocC1Ev
libostyle.so.0:_ZN14OpenJade_DSSSL21DssslSpecEventHandler3DocC2ERKN6OpenSP6StringIjEE
libostyle.so.0:_ZN14OpenJade_DSSSL21DssslSpecEventHandler3DocC2Ev
libostyle.so.0:_ZN14OpenJade_DSSSL21DssslSpecEventHandler4Part3docEv
libostyle.so.0:_ZN14OpenJade_DSSSL21DssslSpecEventHandler4Part6appendEPNS0_11BodyElementE
libostyle.so.0:_ZN14OpenJade_DSSSL21DssslSpecEventHandler4Part6appendEPNS0_18DeclarationElementE
libostyle.so.0:_ZN14OpenJade_DSSSL21DssslSpecEventHandler4Part7resolveERS0_
libostyle.so.0:_ZN14OpenJade_DSSSL21DssslSpecEventHandler4PartC1EPNS0_3DocE
libostyle.so.0:_ZN14OpenJade_DSSSL21DssslSpecEventHandler4PartC2EPNS0_3DocE
libostyle.so.0:_ZN14OpenJade_DSSSL21DssslSpecEventHandler4dataEPN6OpenSP9DataEventE
libostyle.so.0:_ZN14OpenJade_DSSSL21DssslSpecEventHandler4loadERN6OpenSP10SgmlParserERKNS1_11CharsetInfoERKNS1_6StringIjEERNS1_6VectorIPNS0_4PartEEE
libostyle.so.0:_ZN14OpenJade_DSSSL21DssslSpecEventHandler7findDocERKN6OpenSP6StringIjEE
libostyle.so.0:_ZN14OpenJade_DSSSL21DssslSpecEventHandler7loadDocERN6OpenSP10SgmlParserERNS0_3DocE
libostyle.so.0:_ZN14OpenJade_DSSSL21DssslSpecEventHandler7messageEPN6OpenSP12MessageEventE
libostyle.so.0:_ZN14OpenJade_DSSSL21DssslSpecEventHandler8SpecPartD0Ev
libostyle.so.0:_ZN14OpenJade_DSSSL21DssslSpecEventHandler8SpecPartD1Ev
libostyle.so.0:_ZN14OpenJade_DSSSL21DssslSpecEventHandler8SpecPartD2Ev
libostyle.so.0:_ZN14OpenJade_DSSSL21DssslSpecEventHandler9endPrologEPN6OpenSP14EndPrologEventE
libostyle.so.0:_ZN14OpenJade_DSSSL21DssslSpecEventHandlerC1ERN6OpenSP9MessengerE
libostyle.so.0:_ZN14OpenJade_DSSSL21DssslSpecEventHandlerC2ERN6OpenSP9MessengerE
libostyle.so.0:_ZN14OpenJade_DSSSL21GenericBoolInheritedCC1EPKNS_10IdentifierEjMNS_10FOTBuilderEFvbEb
libostyle.so.0:_ZN14OpenJade_DSSSL21GenericBoolInheritedCC2EPKNS_10IdentifierEjMNS_10FOTBuilderEFvbEb
libostyle.so.0:_ZN14OpenJade_DSSSL21IsAddressPrimitiveObj13primitiveCallEiPPNS_5ELObjERNS_11EvalContextERNS_11InterpreterERKN6OpenSP8LocationE
libostyle.so.0:_ZN14OpenJade_DSSSL21IsBooleanPrimitiveObj13primitiveCallEiPPNS_5ELObjERNS_11EvalContextERNS_11InterpreterERKN6OpenSP8LocationE
libostyle.so.0:_ZN14OpenJade_DSSSL21IsGlyphIdPrimitiveObj13primitiveCallEiPPNS_5ELObjERNS_11EvalContextERNS_11InterpreterERKN6OpenSP8LocationE
libostyle.so.0:_ZN14OpenJade_DSSSL21IsInexactPrimitiveObj13primitiveCallEiPPNS_5ELObjERNS_11EvalContextERNS_11InterpreterERKN6OpenSP8LocationE
libostyle.so.0:_ZN14OpenJade_DSSSL21IsIntegerPrimitiveObj13primitiveCallEiPPNS_5ELObjERNS_11EvalContextERNS_11InterpreterERKN6OpenSP8LocationE
libostyle.so.0:_ZN14OpenJade_DSSSL21IsKeywordPrimitiveObj13primitiveCallEiPPNS_5ELObjERNS_11EvalContextERNS_11InterpreterERKN6OpenSP8LocationE
libostyle.so.0:_ZN14OpenJade_DSSSL21LessEqualPrimitiveObj13primitiveCallEiPPNS_5ELObjERNS_11EvalContextERNS_11InterpreterERKN6OpenSP8LocationE
libostyle.so.0:_ZN14OpenJade_DSSSL21NamedNodePrimitiveObj13primitiveCallEiPPNS_5ELObjERNS_11EvalContextERNS_11InterpreterERKN6OpenSP8LocationE
libostyle.so.0:_ZN14OpenJade_DSSSL21NextMatchPrimitiveObj13primitiveCallEiPPNS_5ELObjERNS_11EvalContextERNS_11InterpreterERKN6OpenSP8LocationE
libostyle.so.0:_ZN14OpenJade_DSSSL21ParagraphBreakFlowObj12processInnerERNS_14ProcessContextE
libostyle.so.0:_ZN14OpenJade_DSSSL21ParagraphBreakFlowObj16setNonInheritedCEPKNS_10IdentifierEPNS_5ELObjERKN6OpenSP8LocationERNS_11InterpreterE
libostyle.so.0:_ZN14OpenJade_DSSSL21ParagraphBreakFlowObjC1ERKS0_
libostyle.so.0:_ZN14OpenJade_DSSSL21ParagraphBreakFlowObjC1Ev
libostyle.so.0:_ZN14OpenJade_DSSSL21ParagraphBreakFlowObjC2ERKS0_
libostyle.so.0:_ZN14OpenJade_DSSSL21ParagraphBreakFlowObjC2Ev
libostyle.so.0:_ZN14OpenJade_DSSSL21RemainderPrimitiveObj13primitiveCallEiPPNS_5ELObjERNS_11EvalContextERNS_11InterpreterERKN6OpenSP8LocationE
libostyle.so.0:_ZN14OpenJade_DSSSL21ResolveQuantitiesInsnC1ERKN6OpenSP8LocationENS1_8ConstPtrINS_4InsnEEE
libostyle.so.0:_ZN14OpenJade_DSSSL21ResolveQuantitiesInsnC2ERKN6OpenSP8LocationENS1_8ConstPtrINS_4InsnEEE
libostyle.so.0:_ZN14OpenJade_DSSSL21SetDefaultContentInsnC1EPKNS_15CompoundFlowObjERKN6OpenSP8LocationENS4_8ConstPtrINS_4InsnEEE
libostyle.so.0:_ZN14OpenJade_DSSSL21SetDefaultContentInsnC2EPKNS_15CompoundFlowObjERKN6OpenSP8LocationENS4_8ConstPtrINS_4InsnEEE
libostyle.so.0:_ZN14OpenJade_DSSSL21SgmlParsePrimitiveObj13primitiveCallEiPPNS_5ELObjERNS_11EvalContextERNS_11InterpreterERKN6OpenSP8LocationE
libostyle.so.0:_ZN14OpenJade_DSSSL21StartMathOperatorCall4emitERNS_10FOTBuilderE
libostyle.so.0:_ZN14OpenJade_DSSSL21StartMathOperatorCallC1ERPNS_10FOTBuilderES3_S3_
libostyle.so.0:_ZN14OpenJade_DSSSL21StartMathOperatorCallC2ERPNS_10FOTBuilderES3_S3_
libostyle.so.0:_ZN14OpenJade_DSSSL21StringRefPrimitiveObj13primitiveCallEiPPNS_5ELObjERNS_11EvalContextERNS_11InterpreterERKN6OpenSP8LocationE
libostyle.so.0:_ZN14OpenJade_DSSSL21SubstringPrimitiveObj13primitiveCallEiPPNS_5ELObjERNS_11EvalContextERNS_11InterpreterERKN6OpenSP8LocationE
libostyle.so.0:_ZN14OpenJade_DSSSL21TableUnitPrimitiveObj13primitiveCallEiPPNS_5ELObjERNS_11EvalContextERNS_11InterpreterERKN6OpenSP8LocationE
libostyle.so.0:_ZN14OpenJade_DSSSL21TextInputSourceOrigin11noteCharRefEjRKN6OpenSP12NamedCharRefE
libostyle.so.0:_ZN14OpenJade_DSSSL21TextInputSourceOrigin15setExternalInfoEPN6OpenSP12ExternalInfoE
libostyle.so.0:_ZN14OpenJade_DSSSL21TextInputSourceOriginC1ERN6OpenSP4TextE
libostyle.so.0:_ZN14OpenJade_DSSSL21TextInputSourceOriginC2ERN6OpenSP4TextE
libostyle.so.0:_ZN14OpenJade_DSSSL21UnresolvedQuantityObj17resolveQuantitiesEbRNS_11InterpreterERKN6OpenSP8LocationE
libostyle.so.0:_ZN14OpenJade_DSSSL21UnresolvedQuantityObjC1EdPNS_4UnitEi
libostyle.so.0:_ZN14OpenJade_DSSSL21UnresolvedQuantityObjC2EdPNS_4UnitEi
libostyle.so.0:_ZN14OpenJade_DSSSL21VectorRefPrimitiveObj13primitiveCallEiPPNS_5ELObjERNS_11EvalContextERNS_11InterpreterERKN6OpenSP8LocationE
libostyle.so.0:_ZN14OpenJade_DSSSL21VectorSetPrimitiveObj13primitiveCallEiPPNS_5ELObjERNS_11EvalContextERNS_11InterpreterERKN6OpenSP8LocationE
libostyle.so.0:_ZN14OpenJade_DSSSL22AttributesPrimitiveObj13primitiveCallEiPPNS_5ELObjERNS_11EvalContextERNS_11InterpreterERKN6OpenSP8LocationE
libostyle.so.0:_ZN14OpenJade_DSSSL22CharUpcasePrimitiveObj13primitiveCallEiPPNS_5ELObjERNS_11EvalContextERNS_11InterpreterERKN6OpenSP8LocationE
libostyle.so.0:_ZN14OpenJade_DSSSL22ColorSpacePrimitiveObj13primitiveCallEiPPNS_5ELObjERNS_11EvalContextERNS_11InterpreterERKN6OpenSP8LocationE
libostyle.so.0:_ZN14OpenJade_DSSSL22DescendantsNodeListObj12chunkAdvanceERN14OpenJade_Grove7NodePtrERj
libostyle.so.0:_ZN14OpenJade_DSSSL22DescendantsNodeListObj12nodeListRestERNS_11EvalContextERNS_11InterpreterE
libostyle.so.0:_ZN14OpenJade_DSSSL22DescendantsNodeListObj13nodeListFirstERNS_11EvalContextERNS_11InterpreterE
libostyle.so.0:_ZN14OpenJade_DSSSL22DescendantsNodeListObj17nodeListChunkRestERNS_11EvalContextERNS_11InterpreterERb
libostyle.so.0:_ZN14OpenJade_DSSSL22DescendantsNodeListObj7advanceERN14OpenJade_Grove7NodePtrERj
libostyle.so.0:_ZN14OpenJade_DSSSL22DescendantsNodeListObjC1ERKN14OpenJade_Grove7NodePtrEj
libostyle.so.0:_ZN14OpenJade_DSSSL22DescendantsNodeListObjC2ERKN14OpenJade_Grove7NodePtrEj
libostyle.so.0:_ZN14OpenJade_DSSSL22DeviceRGBColorSpaceObj9makeColorEiPPNS_5ELObjERNS_11InterpreterERKN6OpenSP8LocationE
libostyle.so.0:_ZN14OpenJade_DSSSL22EntityTextPrimitiveObj13primitiveCallEiPPNS_5ELObjERNS_11EvalContextERNS_11InterpreterERKN6OpenSP8LocationE
libostyle.so.0:_ZN14OpenJade_DSSSL22EntityTypePrimitiveObj13primitiveCallEiPPNS_5ELObjERNS_11EvalContextERNS_11InterpreterERKN6OpenSP8LocationE
libostyle.so.0:_ZN14OpenJade_DSSSL22ExternalGraphicFlowObj12processInnerERNS_14ProcessContextE
libostyle.so.0:_ZN14OpenJade_DSSSL22ExternalGraphicFlowObj16setNonInheritedCEPKNS_10IdentifierEPNS_5ELObjERKN6OpenSP8LocationERNS_11InterpreterE
libostyle.so.0:_ZN14OpenJade_DSSSL22ExternalGraphicFlowObjC1ERKS0_
libostyle.so.0:_ZN14OpenJade_DSSSL22ExternalGraphicFlowObjC1Ev
libostyle.so.0:_ZN14OpenJade_DSSSL22ExternalGraphicFlowObjC2ERKS0_
libostyle.so.0:_ZN14OpenJade_DSSSL22ExternalGraphicFlowObjC2Ev
libostyle.so.0:_ZN14OpenJade_DSSSL22GlyphSubstPrimitiveObj13primitiveCallEiPPNS_5ELObjERNS_11EvalContextERNS_11InterpreterERKN6OpenSP8LocationE
libostyle.so.0:_ZN14OpenJade_DSSSL22InheritedCPrimitiveObj13primitiveCallEiPPNS_5ELObjERNS_11EvalContextERNS_11InterpreterERKN6OpenSP8LocationE
libostyle.so.0:_ZN14OpenJade_DSSSL22IsLanguagePrimitiveObj13primitiveCallEiPPNS_5ELObjERNS_11EvalContextERNS_11InterpreterERKN6OpenSP8LocationE
libostyle.so.0:_ZN14OpenJade_DSSSL22IsNegativePrimitiveObj13primitiveCallEiPPNS_5ELObjERNS_11EvalContextERNS_11InterpreterERKN6OpenSP8LocationE
libostyle.so.0:_ZN14OpenJade_DSSSL22IsNodeListPrimitiveObj13primitiveCallEiPPNS_5ELObjERNS_11EvalContextERNS_11InterpreterERKN6OpenSP8LocationE
libostyle.so.0:_ZN14OpenJade_DSSSL22IsPositivePrimitiveObj13primitiveCallEiPPNS_5ELObjERNS_11EvalContextERNS_11InterpreterERKN6OpenSP8LocationE
libostyle.so.0:_ZN14OpenJade_DSSSL22IsQuantityPrimitiveObj13primitiveCallEiPPNS_5ELObjERNS_11EvalContextERNS_11InterpreterERKN6OpenSP8LocationE
libostyle.so.0:_ZN14OpenJade_DSSSL22MakeDefaultContentInsnC1ERKN6OpenSP8LocationENS1_8ConstPtrINS_4InsnEEE
libostyle.so.0:_ZN14OpenJade_DSSSL22MakeDefaultContentInsnC2ERKN6OpenSP8LocationENS1_8ConstPtrINS_4InsnEEE
libostyle.so.0:_ZN14OpenJade_DSSSL22MakeVectorPrimitiveObj13primitiveCallEiPPNS_5ELObjERNS_11EvalContextERNS_11InterpreterERKN6OpenSP8LocationE
libostyle.so.0:_ZN14OpenJade_DSSSL22MaybeOverrideStyleInsnC1EN6OpenSP8ConstPtrINS_4InsnEEE
libostyle.so.0:_ZN14OpenJade_DSSSL22MaybeOverrideStyleInsnC2EN6OpenSP8ConstPtrINS_4InsnEEE
libostyle.so.0:_ZN14OpenJade_DSSSL22MergeStylePrimitiveObj13primitiveCallEiPPNS_5ELObjERNS_11EvalContextERNS_11InterpreterERKN6OpenSP8LocationE
libostyle.so.0:_ZN14OpenJade_DSSSL22NodeListPtrNodeListObj11nodeListRefElRNS_11EvalContextERNS_11InterpreterE
libostyle.so.0:_ZN14OpenJade_DSSSL22NodeListPtrNodeListObj12nodeListRestERNS_11EvalContextERNS_11InterpreterE
libostyle.so.0:_ZN14OpenJade_DSSSL22NodeListPtrNodeListObj13nodeListFirstERNS_11EvalContextERNS_11InterpreterE
libostyle.so.0:_ZN14OpenJade_DSSSL22NodeListPtrNodeListObj17nodeListChunkRestERNS_11EvalContextERNS_11InterpreterERb
libostyle.so.0:_ZN14OpenJade_DSSSL22NodeListPtrNodeListObjC1ERKN14OpenJade_Grove11NodeListPtrE
libostyle.so.0:_ZN14OpenJade_DSSSL22NodeListPtrNodeListObjC2ERKN14OpenJade_Grove11NodeListPtrE
libostyle.so.0:_ZN14OpenJade_DSSSL22ReadEntityPrimitiveObj13primitiveCallEiPPNS_5ELObjERNS_11EvalContextERNS_11InterpreterERKN6OpenSP8LocationE
libostyle.so.0:_ZN14OpenJade_DSSSL22StringLessPrimitiveObj13primitiveCallEiPPNS_5ELObjERNS_11EvalContextERNS_11InterpreterERKN6OpenSP8LocationE
libostyle.so.0:_ZN14OpenJade_DSSSL22VectorFillPrimitiveObj13primitiveCallEiPPNS_5ELObjERNS_11EvalContextERNS_11InterpreterERKN6OpenSP8LocationE
libostyle.so.0:_ZN14OpenJade_DSSSL22XSgmlParsePrimitiveObj13primitiveCallEiPPNS_5ELObjERNS_11EvalContextERNS_11InterpreterERKN6OpenSP8LocationE
libostyle.so.0:_ZN14OpenJade_DSSSL23ChildNumberPrimitiveObj13primitiveCallEiPPNS_5ELObjERNS_11EvalContextERNS_11InterpreterERKN6OpenSP8LocationE
libostyle.so.0:_ZN14OpenJade_DSSSL23CurrentNodePrimitiveObj13primitiveCallEiPPNS_5ELObjERNS_11EvalContextERNS_11InterpreterERKN6OpenSP8LocationE
libostyle.so.0:_ZN14OpenJade_DSSSL23DescendantsPrimitiveObj13primitiveCallEiPPNS_5ELObjERNS_11EvalContextERNS_11InterpreterERKN6OpenSP8LocationE
libostyle.so.0:_ZN14OpenJade_DSSSL23DeviceCMYKColorSpaceObj9makeColorEiPPNS_5ELObjERNS_11InterpreterERKN6OpenSP8LocationE
libostyle.so.0:_ZN14OpenJade_DSSSL23DeviceGrayColorSpaceObj9makeColorEiPPNS_5ELObjERNS_11InterpreterERKN6OpenSP8LocationE
libostyle.so.0:_ZN14OpenJade_DSSSL23DiscardLabeledSosofoObj7processERNS_14ProcessContextE
libostyle.so.0:_ZN14OpenJade_DSSSL23DiscardLabeledSosofoObjC1EPNS_9SymbolObjEPNS_9SosofoObjE
libostyle.so.0:_ZN14OpenJade_DSSSL23DiscardLabeledSosofoObjC2EPNS_9SymbolObjEPNS_9SosofoObjE
libostyle.so.0:_ZN14OpenJade_DSSSL23DisplaySizePrimitiveObj13primitiveCallEiPPNS_5ELObjERNS_11EvalContextERNS_11InterpreterERKN6OpenSP8LocationE
libostyle.so.0:_ZN14OpenJade_DSSSL23EmptySosofoPrimitiveObj13primitiveCallEiPPNS_5ELObjERNS_11EvalContextERNS_11InterpreterERKN6OpenSP8LocationE
libostyle.so.0:_ZN14OpenJade_DSSSL23ExtensionBoolInheritedCC1EPKNS_10IdentifierEjMNS_10FOTBuilderEFvbEb
libostyle.so.0:_ZN14OpenJade_DSSSL23ExtensionBoolInheritedCC2EPKNS_10IdentifierEjMNS_10FOTBuilderEFvbEb
libostyle.so.0:_ZN14OpenJade_DSSSL23GenericLengthInheritedCC1EPKNS_10IdentifierEjMNS_10FOTBuilderEFvlEl
libostyle.so.0:_ZN14OpenJade_DSSSL23GenericLengthInheritedCC2EPKNS_10IdentifierEjMNS_10FOTBuilderEFvlEl
libostyle.so.0:_ZN14OpenJade_DSSSL23GenericSymbolInheritedCC1EPKNS_10IdentifierEjMNS_10FOTBuilderEFvNS4_6SymbolEES5_
libostyle.so.0:_ZN14OpenJade_DSSSL23GenericSymbolInheritedCC2EPKNS_10IdentifierEjMNS_10FOTBuilderEFvNS4_6SymbolEES5_
libostyle.so.0:_ZN14OpenJade_DSSSL23IfFirstPagePrimitiveObj13primitiveCallEiPPNS_5ELObjERNS_11EvalContextERNS_11InterpreterERKN6OpenSP8LocationE
libostyle.so.0:_ZN14OpenJade_DSSSL23IfFrontPagePrimitiveObj13primitiveCallEiPPNS_5ELObjERNS_11EvalContextERNS_11InterpreterERKN6OpenSP8LocationE
libostyle.so.0:_ZN14OpenJade_DSSSL23InlineSpacePrimitiveObj13primitiveCallEiPPNS_5ELObjERNS_11EvalContextERNS_11InterpreterERKN6OpenSP8LocationE
libostyle.so.0:_ZN14OpenJade_DSSSL23IsCharEqualPrimitiveObj13primitiveCallEiPPNS_5ELObjERNS_11EvalContextERNS_11InterpreterERKN6OpenSP8LocationE
libostyle.so.0:_ZN14OpenJade_DSSSL23IsProcedurePrimitiveObj13primitiveCallEiPPNS_5ELObjERNS_11EvalContextERNS_11InterpreterERKN6OpenSP8LocationE
libostyle.so.0:_ZN14OpenJade_DSSSL23NodeListMapPrimitiveObj13primitiveCallEiPPNS_5ELObjERNS_11EvalContextERNS_11InterpreterERKN6OpenSP8LocationE
libostyle.so.0:_ZN14OpenJade_DSSSL23NodeListRefPrimitiveObj13primitiveCallEiPPNS_5ELObjERNS_11EvalContextERNS_11InterpreterERKN6OpenSP8LocationE
libostyle.so.0:_ZN14OpenJade_DSSSL23OptLengthSpecInheritedC8setValueEPNS_5ELObjERKN6OpenSP8LocationERNS_11InterpreterE
libostyle.so.0:_ZN14OpenJade_DSSSL23OptLengthSpecInheritedCC1EPKNS_10IdentifierEj
libostyle.so.0:_ZN14OpenJade_DSSSL23OptLengthSpecInheritedCC2EPKNS_10IdentifierEj
libostyle.so.0:_ZN14OpenJade_DSSSL23SosofoLabelPrimitiveObj13primitiveCallEiPPNS_5ELObjERNS_11EvalContextERNS_11InterpreterERKN6OpenSP8LocationE
libostyle.so.0:_ZN14OpenJade_DSSSL23StringEquivPrimitiveObj13primitiveCallEiPPNS_5ELObjERNS_11EvalContextERNS_11InterpreterERKN6OpenSP8LocationE
libostyle.so.0:_ZN14OpenJade_DSSSL23TimeGreaterPrimitiveObj13primitiveCallEiPPNS_5ELObjERNS_11EvalContextERNS_11InterpreterERKN6OpenSP8LocationE
libostyle.so.0:_ZN14OpenJade_DSSSL24CharDowncasePrimitiveObj13primitiveCallEiPPNS_5ELObjERNS_11EvalContextERNS_11InterpreterERKN6OpenSP8LocationE
libostyle.so.0:_ZN14OpenJade_DSSSL24CharPropertyPrimitiveObj13primitiveCallEiPPNS_5ELObjERNS_11EvalContextERNS_11InterpreterERKN6OpenSP8LocationE
libostyle.so.0:_ZN14OpenJade_DSSSL24CompoundExtensionFlowObj12processInnerERNS_14ProcessContextE
libostyle.so.0:_ZN14OpenJade_DSSSL24CompoundExtensionFlowObj16setNonInheritedCEPKNS_10IdentifierEPNS_5ELObjERKN6OpenSP8LocationERNS_11InterpreterE
libostyle.so.0:_ZN14OpenJade_DSSSL24CompoundExtensionFlowObjC1ERKNS_10FOTBuilder24CompoundExtensionFlowObjE
libostyle.so.0:_ZN14OpenJade_DSSSL24CompoundExtensionFlowObjC1ERKS0_
libostyle.so.0:_ZN14OpenJade_DSSSL24CompoundExtensionFlowObjC2ERKNS_10FOTBuilder24CompoundExtensionFlowObjE
libostyle.so.0:_ZN14OpenJade_DSSSL24CompoundExtensionFlowObjC2ERKS0_
libostyle.so.0:_ZN14OpenJade_DSSSL24DisplaySpacePrimitiveObj13primitiveCallEiPPNS_5ELObjERNS_11EvalContextERNS_11InterpreterERKN6OpenSP8LocationE
libostyle.so.0:_ZN14OpenJade_DSSSL24FirstChildGiPrimitiveObj13primitiveCallEiPPNS_5ELObjERNS_11EvalContextERNS_11InterpreterERKN6OpenSP8LocationE
libostyle.so.0:_ZN14OpenJade_DSSSL24FormatNumberPrimitiveObj13primitiveCallEiPPNS_5ELObjERNS_11EvalContextERNS_11InterpreterERKN6OpenSP8LocationE
libostyle.so.0:_ZN14OpenJade_DSSSL24GenericIntegerInheritedCC1EPKNS_10IdentifierEjMNS_10FOTBuilderEFvlEl
libostyle.so.0:_ZN14OpenJade_DSSSL24GenericIntegerInheritedCC2EPKNS_10IdentifierEjMNS_10FOTBuilderEFvlEl
libostyle.so.0:_ZN14OpenJade_DSSSL24GenericLetter2InheritedCC1EPKNS_10IdentifierEjMNS_10FOTBuilderEFvjEj
libostyle.so.0:_ZN14OpenJade_DSSSL24GenericLetter2InheritedCC2EPKNS_10IdentifierEjMNS_10FOTBuilderEFvjEj
libostyle.so.0:_ZN14OpenJade_DSSSL24GreaterEqualPrimitiveObj13primitiveCallEiPPNS_5ELObjERNS_11EvalContextERNS_11InterpreterERKN6OpenSP8LocationE
libostyle.so.0:_ZN14OpenJade_DSSSL24IdrefAddressPrimitiveObj13primitiveCallEiPPNS_5ELObjERNS_11EvalContextERNS_11InterpreterERKN6OpenSP8LocationE
libostyle.so.0:_ZN14OpenJade_DSSSL24IsColorSpacePrimitiveObj13primitiveCallEiPPNS_5ELObjERNS_11EvalContextERNS_11InterpreterERKN6OpenSP8LocationE
libostyle.so.0:_ZN14OpenJade_DSSSL24ListToStringPrimitiveObj13primitiveCallEiPPNS_5ELObjERNS_11EvalContextERNS_11InterpreterERKN6OpenSP8LocationE
libostyle.so.0:_ZN14OpenJade_DSSSL24ListToVectorPrimitiveObj13primitiveCallEiPPNS_5ELObjERNS_11EvalContextERNS_11InterpreterERKN6OpenSP8LocationE
libostyle.so.0:_ZN14OpenJade_DSSSL24NodeListRestPrimitiveObj13primitiveCallEiPPNS_5ELObjERNS_11EvalContextERNS_11InterpreterERKN6OpenSP8LocationE
libostyle.so.0:_ZN14OpenJade_DSSSL24NodePropertyPrimitiveObj13primitiveCallEiPPNS_5ELObjERNS_11EvalContextERNS_11InterpreterERKN6OpenSP8LocationE
libostyle.so.0:_ZN14OpenJade_DSSSL24ProcessChildrenSosofoObj7processERNS_14ProcessContextE
libostyle.so.0:_ZN14OpenJade_DSSSL24ProcessNodeListSosofoObj7processERNS_14ProcessContextE
libostyle.so.0:_ZN14OpenJade_DSSSL24ProcessNodeListSosofoObjC1EPNS_11NodeListObjEPKNS_14ProcessingModeE
libostyle.so.0:_ZN14OpenJade_DSSSL24ProcessNodeListSosofoObjC2EPNS_11NodeListObjEPKNS_14ProcessingModeE
libostyle.so.0:_ZN14OpenJade_DSSSL24SelectByClassNodeListObj12nodeListRestERNS_11EvalContextERNS_11InterpreterE
libostyle.so.0:_ZN14OpenJade_DSSSL24SelectByClassNodeListObj13nodeListFirstERNS_11EvalContextERNS_11InterpreterE
libostyle.so.0:_ZN14OpenJade_DSSSL24SelectByClassNodeListObj17nodeListChunkRestERNS_11EvalContextERNS_11InterpreterERb
libostyle.so.0:_ZN14OpenJade_DSSSL24SelectByClassNodeListObjC1EPNS_11NodeListObjEN14OpenJade_Grove13ComponentName2IdE
libostyle.so.0:_ZN14OpenJade_DSSSL24SelectByClassNodeListObjC2EPNS_11NodeListObjEN14OpenJade_Grove13ComponentName2IdE
libostyle.so.0:_ZN14OpenJade_DSSSL24SosofoAppendPrimitiveObj13primitiveCallEiPPNS_5ELObjERNS_11EvalContextERNS_11InterpreterERKN6OpenSP8LocationE
libostyle.so.0:_ZN14OpenJade_DSSSL24StringAppendPrimitiveObj13primitiveCallEiPPNS_5ELObjERNS_11EvalContextERNS_11InterpreterERKN6OpenSP8LocationE
libostyle.so.0:_ZN14OpenJade_DSSSL24StringLengthPrimitiveObj13primitiveCallEiPPNS_5ELObjERNS_11EvalContextERNS_11InterpreterERKN6OpenSP8LocationE
libostyle.so.0:_ZN14OpenJade_DSSSL24StringToListPrimitiveObj13primitiveCallEiPPNS_5ELObjERNS_11EvalContextERNS_11InterpreterERKN6OpenSP8LocationE
libostyle.so.0:_ZN14OpenJade_DSSSL24TimeToStringPrimitiveObj13primitiveCallEiPPNS_5ELObjERNS_11EvalContextERNS_11InterpreterERKN6OpenSP8LocationE
libostyle.so.0:_ZN14OpenJade_DSSSL24VectorToListPrimitiveObj13primitiveCallEiPPNS_5ELObjERNS_11EvalContextERNS_11InterpreterERKN6OpenSP8LocationE
libostyle.so.0:_ZN14OpenJade_DSSSL24WithLanguagePrimitiveObj13primitiveCallEiPPNS_5ELObjERNS_11EvalContextERNS_11InterpreterERKN6OpenSP8LocationE
libostyle.so.0:_ZN14OpenJade_DSSSL25ElementNumberPrimitiveObj13primitiveCallEiPPNS_5ELObjERNS_11EvalContextERNS_11InterpreterERKN6OpenSP8LocationE
libostyle.so.0:_ZN14OpenJade_DSSSL25ElementWithIdPrimitiveObj13primitiveCallEiPPNS_5ELObjERNS_11EvalContextERNS_11InterpreterERKN6OpenSP8LocationE
libostyle.so.0:_ZN14OpenJade_DSSSL25EmptyNodeListPrimitiveObj13primitiveCallEiPPNS_5ELObjERNS_11EvalContextERNS_11InterpreterERKN6OpenSP8LocationE
libostyle.so.0:_ZN14OpenJade_DSSSL25EntityAddressPrimitiveObj13primitiveCallEiPPNS_5ELObjERNS_11EvalContextERNS_11InterpreterERKN6OpenSP8LocationE
libostyle.so.0:_ZN14OpenJade_DSSSL25ExtensionLengthInheritedCC1EPKNS_10IdentifierEjMNS_10FOTBuilderEFvlEl
libostyle.so.0:_ZN14OpenJade_DSSSL25ExtensionLengthInheritedCC2EPKNS_10IdentifierEjMNS_10FOTBuilderEFvlEl
libostyle.so.0:_ZN14OpenJade_DSSSL25ExtensionStringInheritedCC1EPKNS_10IdentifierEjMNS_10FOTBuilderEFvRKN6OpenSP6StringIjEEE
libostyle.so.0:_ZN14OpenJade_DSSSL25ExtensionStringInheritedCC1EPKNS_10IdentifierEjMNS_10FOTBuilderEFvRKN6OpenSP6StringIjEEEPKjm
libostyle.so.0:_ZN14OpenJade_DSSSL25ExtensionStringInheritedCC2EPKNS_10IdentifierEjMNS_10FOTBuilderEFvRKN6OpenSP6StringIjEEE
libostyle.so.0:_ZN14OpenJade_DSSSL25ExtensionStringInheritedCC2EPKNS_10IdentifierEjMNS_10FOTBuilderEFvRKN6OpenSP6StringIjEEEPKjm
libostyle.so.0:_ZN14OpenJade_DSSSL25GenericPublicIdInheritedCC1EPKNS_10IdentifierEjMNS_10FOTBuilderEFvPKcES6_
libostyle.so.0:_ZN14OpenJade_DSSSL25GenericPublicIdInheritedCC2EPKNS_10IdentifierEjMNS_10FOTBuilderEFvPKcES6_
libostyle.so.0:_ZN14OpenJade_DSSSL25HytimeLinkendPrimitiveObj13primitiveCallEiPPNS_5ELObjERNS_11EvalContextERNS_11InterpreterERKN6OpenSP8LocationE
libostyle.so.0:_ZN14OpenJade_DSSSL25IsInlineSpacePrimitiveObj13primitiveCallEiPPNS_5ELObjERNS_11EvalContextERNS_11InterpreterERKN6OpenSP8LocationE
libostyle.so.0:_ZN14OpenJade_DSSSL25IsLastSiblingPrimitiveObj13primitiveCallEiPPNS_5ELObjERNS_11EvalContextERNS_11InterpreterERKN6OpenSP8LocationE
libostyle.so.0:_ZN14OpenJade_DSSSL25IsStringEqualPrimitiveObj13primitiveCallEiPPNS_5ELObjERNS_11EvalContextERNS_11InterpreterERKN6OpenSP8LocationE
libostyle.so.0:_ZN14OpenJade_DSSSL25NodeListErrorPrimitiveObj13primitiveCallEiPPNS_5ELObjERNS_11EvalContextERNS_11InterpreterERKN6OpenSP8LocationE
libostyle.so.0:_ZN14OpenJade_DSSSL25NodeListFirstPrimitiveObj13primitiveCallEiPPNS_5ELObjERNS_11EvalContextERNS_11InterpreterERKN6OpenSP8LocationE
libostyle.so.0:_ZN14OpenJade_DSSSL25SelectByClassPrimitiveObj13primitiveCallEiPPNS_5ELObjERNS_11EvalContextERNS_11InterpreterERKN6OpenSP8LocationE
libostyle.so.0:_ZN14OpenJade_DSSSL25SelectElementsNodeListObj12nodeListRestERNS_11EvalContextERNS_11InterpreterE
libostyle.so.0:_ZN14OpenJade_DSSSL25SelectElementsNodeListObj13nodeListFirstERNS_11EvalContextERNS_11InterpreterE
libostyle.so.0:_ZN14OpenJade_DSSSL25SelectElementsNodeListObjC1EPNS_11NodeListObjERKN6OpenSP8ConstPtrINS0_10PatternSetEEE
libostyle.so.0:_ZN14OpenJade_DSSSL25SelectElementsNodeListObjC1EPNS_11NodeListObjERN6OpenSP8NCVectorINS_7PatternEEE
libostyle.so.0:_ZN14OpenJade_DSSSL25SelectElementsNodeListObjC2EPNS_11NodeListObjERKN6OpenSP8ConstPtrINS0_10PatternSetEEE
libostyle.so.0:_ZN14OpenJade_DSSSL25SelectElementsNodeListObjC2EPNS_11NodeListObjERN6OpenSP8NCVectorINS_7PatternEEE
libostyle.so.0:_ZN14OpenJade_DSSSL25SimplePageSequenceFlowObj12HeaderFooterC1Ev
libostyle.so.0:_ZN14OpenJade_DSSSL25SimplePageSequenceFlowObj12HeaderFooterC2Ev
libostyle.so.0:_ZN14OpenJade_DSSSL25SimplePageSequenceFlowObj12processInnerERNS_14ProcessContextE
libostyle.so.0:_ZN14OpenJade_DSSSL25SimplePageSequenceFlowObj16setNonInheritedCEPKNS_10IdentifierEPNS_5ELObjERKN6OpenSP8LocationERNS_11InterpreterE
libostyle.so.0:_ZN14OpenJade_DSSSL25SimplePageSequenceFlowObjC1ERKS0_
libostyle.so.0:_ZN14OpenJade_DSSSL25SimplePageSequenceFlowObjC1Ev
libostyle.so.0:_ZN14OpenJade_DSSSL25SimplePageSequenceFlowObjC2ERKS0_
libostyle.so.0:_ZN14OpenJade_DSSSL25SimplePageSequenceFlowObjC2Ev
libostyle.so.0:_ZN14OpenJade_DSSSL26CharScriptCasePrimitiveObj13primitiveCallEiPPNS_5ELObjERNS_11EvalContextERNS_11InterpreterERKN6OpenSP8LocationE
libostyle.so.0:_ZN14OpenJade_DSSSL26EntityNotationPrimitiveObj13primitiveCallEiPPNS_5ELObjERNS_11EvalContextERNS_11InterpreterERKN6OpenSP8LocationE
libostyle.so.0:_ZN14OpenJade_DSSSL26EntityPublicIdPrimitiveObj13primitiveCallEiPPNS_5ELObjERNS_11EvalContextERNS_11InterpreterERKN6OpenSP8LocationE
libostyle.so.0:_ZN14OpenJade_DSSSL26EntitySystemIdPrimitiveObj13primitiveCallEiPPNS_5ELObjERNS_11EvalContextERNS_11InterpreterERKN6OpenSP8LocationE
libostyle.so.0:_ZN14OpenJade_DSSSL26ExactToInexactPrimitiveObj13primitiveCallEiPPNS_5ELObjERNS_11EvalContextERNS_11InterpreterERKN6OpenSP8LocationE
libostyle.so.0:_ZN14OpenJade_DSSSL26ExtensionIntegerInheritedCC1EPKNS_10IdentifierEjMNS_10FOTBuilderEFvlEl
libostyle.so.0:_ZN14OpenJade_DSSSL26ExtensionIntegerInheritedCC2EPKNS_10IdentifierEjMNS_10FOTBuilderEFvlEl
libostyle.so.0:_ZN14OpenJade_DSSSL26InexactToExactPrimitiveObj13primitiveCallEiPPNS_5ELObjERNS_11EvalContextERNS_11InterpreterERKN6OpenSP8LocationE
libostyle.so.0:_ZN14OpenJade_DSSSL26IsAddressLocalPrimitiveObj13primitiveCallEiPPNS_5ELObjERNS_11EvalContextERNS_11InterpreterERKN6OpenSP8LocationE
libostyle.so.0:_ZN14OpenJade_DSSSL26IsDisplaySpacePrimitiveObj13primitiveCallEiPPNS_5ELObjERNS_11EvalContextERNS_11InterpreterERKN6OpenSP8LocationE
libostyle.so.0:_ZN14OpenJade_DSSSL26IsFirstSiblingPrimitiveObj13primitiveCallEiPPNS_5ELObjERNS_11EvalContextERNS_11InterpreterERKN6OpenSP8LocationE
libostyle.so.0:_ZN14OpenJade_DSSSL26IsHaveAncestorPrimitiveObj13primitiveCallEiPPNS_5ELObjERNS_11EvalContextERNS_11InterpreterERKN6OpenSP8LocationE
libostyle.so.0:_ZN14OpenJade_DSSSL26IsMatchElementPrimitiveObj13primitiveCallEiPPNS_5ELObjERNS_11EvalContextERNS_11InterpreterERKN6OpenSP8LocationE
libostyle.so.0:_ZN14OpenJade_DSSSL26MapConstructorPrimitiveObj13primitiveCallEiPPNS_5ELObjERNS_11EvalContextERNS_11InterpreterERKN6OpenSP8LocationE
libostyle.so.0:_ZN14OpenJade_DSSSL26NodeListLengthPrimitiveObj13primitiveCallEiPPNS_5ELObjERNS_11EvalContextERNS_11InterpreterERKN6OpenSP8LocationE
libostyle.so.0:_ZN14OpenJade_DSSSL26NumberToStringPrimitiveObj13primitiveCallEiPPNS_5ELObjERNS_11EvalContextERNS_11InterpreterERKN6OpenSP8LocationE
libostyle.so.0:_ZN14OpenJade_DSSSL26ResolvedConstantExpression7compileERNS_11InterpreterERKNS_11EnvironmentEiRKN6OpenSP8ConstPtrINS_4InsnEEE
libostyle.so.0:_ZN14OpenJade_DSSSL26ResolvedConstantExpressionC1EPNS_5ELObjERKN6OpenSP8LocationE
libostyle.so.0:_ZN14OpenJade_DSSSL26ResolvedConstantExpressionC2EPNS_5ELObjERKN6OpenSP8LocationE
libostyle.so.0:_ZN14OpenJade_DSSSL26SelectElementsPrimitiveObj13primitiveCallEiPPNS_5ELObjERNS_11EvalContextERNS_11InterpreterERKN6OpenSP8LocationE
libostyle.so.0:_ZN14OpenJade_DSSSL26SetNonInheritedCsSosofoObj11isCharacterEv
libostyle.so.0:_ZN14OpenJade_DSSSL26SetNonInheritedCsSosofoObj14characterStyleERNS_14ProcessContextERPNS_8StyleObjERNS_10FOTBuilder12CharacterNICE
libostyle.so.0:_ZN14OpenJade_DSSSL26SetNonInheritedCsSosofoObj6isRuleEv
libostyle.so.0:_ZN14OpenJade_DSSSL26SetNonInheritedCsSosofoObj7processERNS_14ProcessContextE
libostyle.so.0:_ZN14OpenJade_DSSSL26SetNonInheritedCsSosofoObj7resolveERNS_14ProcessContextE
libostyle.so.0:_ZN14OpenJade_DSSSL26SetNonInheritedCsSosofoObj9ruleStyleERNS_14ProcessContextERPNS_8StyleObjE
libostyle.so.0:_ZN14OpenJade_DSSSL26SetNonInheritedCsSosofoObjC1EPNS_7FlowObjERKN6OpenSP8ConstPtrINS_4InsnEEEPPNS_5ELObjERKN14OpenJade_Grove7NodePtrE
libostyle.so.0:_ZN14OpenJade_DSSSL26SetNonInheritedCsSosofoObjC2EPNS_7FlowObjERKN6OpenSP8ConstPtrINS_4InsnEEEPPNS_5ELObjERKN14OpenJade_Grove7NodePtrE
libostyle.so.0:_ZN14OpenJade_DSSSL26SetNonInheritedCsSosofoObjD0Ev
libostyle.so.0:_ZN14OpenJade_DSSSL26SetNonInheritedCsSosofoObjD1Ev
libostyle.so.0:_ZN14OpenJade_DSSSL26SetNonInheritedCsSosofoObjD2Ev
libostyle.so.0:_ZN14OpenJade_DSSSL26SetPseudoNonInheritedCInsnC1EPKNS_10IdentifierERKN6OpenSP8LocationENS4_8ConstPtrINS_4InsnEEE
libostyle.so.0:_ZN14OpenJade_DSSSL26SetPseudoNonInheritedCInsnC2EPKNS_10IdentifierERKN6OpenSP8LocationENS4_8ConstPtrINS_4InsnEEE
libostyle.so.0:_ZN14OpenJade_DSSSL26StringToNumberPrimitiveObj13primitiveCallEiPPNS_5ELObjERNS_11EvalContextERNS_11InterpreterERKN6OpenSP8LocationE
libostyle.so.0:_ZN14OpenJade_DSSSL26StringToSymbolPrimitiveObj13primitiveCallEiPPNS_5ELObjERNS_11EvalContextERNS_11InterpreterERKN6OpenSP8LocationE
libostyle.so.0:_ZN14OpenJade_DSSSL26SymbolToStringPrimitiveObj13primitiveCallEiPPNS_5ELObjERNS_11EvalContextERNS_11InterpreterERKN6OpenSP8LocationE
libostyle.so.0:_ZN14OpenJade_DSSSL27AttributeStringPrimitiveObj13primitiveCallEiPPNS_5ELObjERNS_11EvalContextERNS_11InterpreterERKN6OpenSP8LocationE
libostyle.so.0:_ZN14OpenJade_DSSSL27CharLessOrEqualPrimitiveObj13primitiveCallEiPPNS_5ELObjERNS_11EvalContextERNS_11InterpreterERKN6OpenSP8LocationE
libostyle.so.0:_ZN14OpenJade_DSSSL27CurrentLanguagePrimitiveObj13primitiveCallEiPPNS_5ELObjERNS_11EvalContextERNS_11InterpreterERKN6OpenSP8LocationE
libostyle.so.0:_ZN14OpenJade_DSSSL27GenericLengthSpecInheritedCC1EPKNS_10IdentifierEjMNS_10FOTBuilderEFvRKNS4_10LengthSpecEEl
libostyle.so.0:_ZN14OpenJade_DSSSL27GenericLengthSpecInheritedCC2EPKNS_10IdentifierEjMNS_10FOTBuilderEFvRKNS4_10LengthSpecEEl
libostyle.so.0:_ZN14OpenJade_DSSSL27GlyphSubstTablePrimitiveObj13primitiveCallEiPPNS_5ELObjERNS_11EvalContextERNS_11InterpreterERKN6OpenSP8LocationE
libostyle.so.0:_ZN14OpenJade_DSSSL27IsNamedNodeListPrimitiveObj13primitiveCallEiPPNS_5ELObjERNS_11EvalContextERNS_11InterpreterERKN6OpenSP8LocationE
libostyle.so.0:_ZN14OpenJade_DSSSL27IsNodeListEmptyPrimitiveObj13primitiveCallEiPPNS_5ELObjERNS_11EvalContextERNS_11InterpreterERKN6OpenSP8LocationE
libostyle.so.0:_ZN14OpenJade_DSSSL27IsNodeListEqualPrimitiveObj13primitiveCallEiPPNS_5ELObjERNS_11EvalContextERNS_11InterpreterERKN6OpenSP8LocationE
libostyle.so.0:_ZN14OpenJade_DSSSL27KeywordToStringPrimitiveObj13primitiveCallEiPPNS_5ELObjERNS_11EvalContextERNS_11InterpreterERKN6OpenSP8LocationE
libostyle.so.0:_ZN14OpenJade_DSSSL27NamedNodeListPtrNodeListObj12nodeListRestERNS_11EvalContextERNS_11InterpreterE
libostyle.so.0:_ZN14OpenJade_DSSSL27NamedNodeListPtrNodeListObj13nodeListFirstERNS_11EvalContextERNS_11InterpreterE
libostyle.so.0:_ZN14OpenJade_DSSSL27NamedNodeListPtrNodeListObj15nodeListNoOrderER9Collector
libostyle.so.0:_ZN14OpenJade_DSSSL27NamedNodeListPtrNodeListObj8nodeNameERKN14OpenJade_Grove7NodePtrERNS1_11GroveStringE
libostyle.so.0:_ZN14OpenJade_DSSSL27NamedNodeListPtrNodeListObj9namedNodeEPKjm
libostyle.so.0:_ZN14OpenJade_DSSSL27NamedNodeListPtrNodeListObj9normalizeEPjm
libostyle.so.0:_ZN14OpenJade_DSSSL27NamedNodeListPtrNodeListObjC1ERKN14OpenJade_Grove16NamedNodeListPtrE
libostyle.so.0:_ZN14OpenJade_DSSSL27NamedNodeListPtrNodeListObjC2ERKN14OpenJade_Grove16NamedNodeListPtrE
libostyle.so.0:_ZN14OpenJade_DSSSL27NodeListAddressPrimitiveObj13primitiveCallEiPPNS_5ELObjERNS_11EvalContextERNS_11InterpreterERKN6OpenSP8LocationE
libostyle.so.0:_ZN14OpenJade_DSSSL27NodeListNoOrderPrimitiveObj13primitiveCallEiPPNS_5ELObjERNS_11EvalContextERNS_11InterpreterERKN6OpenSP8LocationE
libostyle.so.0:_ZN14OpenJade_DSSSL27NodeListReversePrimitiveObj13primitiveCallEiPPNS_5ELObjERNS_11EvalContextERNS_11InterpreterERKN6OpenSP8LocationE
libostyle.so.0:_ZN14OpenJade_DSSSL27ProcessChildrenPrimitiveObj13primitiveCallEiPPNS_5ELObjERNS_11EvalContextERNS_11InterpreterERKN6OpenSP8LocationE
libostyle.so.0:_ZN14OpenJade_DSSSL27ProcessNodeListPrimitiveObj13primitiveCallEiPPNS_5ELObjERNS_11EvalContextERNS_11InterpreterERKN6OpenSP8LocationE
libostyle.so.0:_ZN14OpenJade_DSSSL27SetNonInheritedCsSosofoInsnC1EN6OpenSP8ConstPtrINS_4InsnEEEiS4_
libostyle.so.0:_ZN14OpenJade_DSSSL27SetNonInheritedCsSosofoInsnC2EN6OpenSP8ConstPtrINS_4InsnEEEiS4_
libostyle.so.0:_ZN14OpenJade_DSSSL27StartSimplePageSequenceCall4emitERNS_10FOTBuilderE
libostyle.so.0:_ZN14OpenJade_DSSSL27StartSimplePageSequenceCallC1EPPNS_10FOTBuilderE
libostyle.so.0:_ZN14OpenJade_DSSSL27StartSimplePageSequenceCallC2EPPNS_10FOTBuilderE
libostyle.so.0:_ZN14OpenJade_DSSSL27StringToKeywordPrimitiveObj13primitiveCallEiPPNS_5ELObjERNS_11EvalContextERNS_11InterpreterERKN6OpenSP8LocationE
libostyle.so.0:_ZN14OpenJade_DSSSL27TimeLessOrEqualPrimitiveObj13primitiveCallEiPPNS_5ELObjERNS_11EvalContextERNS_11InterpreterERKN6OpenSP8LocationE
libostyle.so.0:_ZN14OpenJade_DSSSL28AllElementNumberPrimitiveObj13primitiveCallEiPPNS_5ELObjERNS_11EvalContextERNS_11InterpreterERKN6OpenSP8LocationE
libostyle.so.0:_ZN14OpenJade_DSSSL28FormatNumberListPrimitiveObj13primitiveCallEiPPNS_5ELObjERNS_11EvalContextERNS_11InterpreterERKN6OpenSP8LocationE
libostyle.so.0:_ZN14OpenJade_DSSSL28GenericInlineSpaceInheritedCC1EPKNS_10IdentifierEjMNS_10FOTBuilderEFvRKNS4_11InlineSpaceEE
libostyle.so.0:_ZN14OpenJade_DSSSL28GenericInlineSpaceInheritedCC2EPKNS_10IdentifierEjMNS_10FOTBuilderEFvRKNS4_11InlineSpaceEE
libostyle.so.0:_ZN14OpenJade_DSSSL28IsAddressVisitedPrimitiveObj13primitiveCallEiPPNS_5ELObjERNS_11EvalContextERNS_11InterpreterERKN6OpenSP8LocationE
libostyle.so.0:_ZN14OpenJade_DSSSL28NotationPublicIdPrimitiveObj13primitiveCallEiPPNS_5ELObjERNS_11EvalContextERNS_11InterpreterERKN6OpenSP8LocationE
libostyle.so.0:_ZN14OpenJade_DSSSL28NotationSystemIdPrimitiveObj13primitiveCallEiPPNS_5ELObjERNS_11EvalContextERNS_11InterpreterERKN6OpenSP8LocationE
libostyle.so.0:_ZN14OpenJade_DSSSL28PageNumberSosofoPrimitiveObj13primitiveCallEiPPNS_5ELObjERNS_11EvalContextERNS_11InterpreterERKN6OpenSP8LocationE
libostyle.so.0:_ZN14OpenJade_DSSSL28ProcessChildrenTrimSosofoObj7processERNS_14ProcessContextE
libostyle.so.0:_ZN14OpenJade_DSSSL28QuantityToNumberPrimitiveObj13primitiveCallEiPPNS_5ELObjERNS_11EvalContextERNS_11InterpreterERKN6OpenSP8LocationE
libostyle.so.0:_ZN14OpenJade_DSSSL28QuantityToStringPrimitiveObj13primitiveCallEiPPNS_5ELObjERNS_11EvalContextERNS_11InterpreterERKN6OpenSP8LocationE
libostyle.so.0:_ZN14OpenJade_DSSSL29ElementNumberListPrimitiveObj13primitiveCallEiPPNS_5ELObjERNS_11EvalContextERNS_11InterpreterERKN6OpenSP8LocationE
libostyle.so.0:_ZN14OpenJade_DSSSL29ExternalProcedurePrimitiveObj13primitiveCallEiPPNS_5ELObjERNS_11EvalContextERNS_11InterpreterERKN6OpenSP8LocationE
libostyle.so.0:_ZN14OpenJade_DSSSL29GenericMaybeIntegerInheritedCC1EPKNS_10IdentifierEjMNS_10FOTBuilderEFvlEl
libostyle.so.0:_ZN14OpenJade_DSSSL29GenericMaybeIntegerInheritedCC2EPKNS_10IdentifierEjMNS_10FOTBuilderEFvlEl
libostyle.so.0:_ZN14OpenJade_DSSSL29IsGlyphSubstTablePrimitiveObj13primitiveCallEiPPNS_5ELObjERNS_11EvalContextERNS_11InterpreterERKN6OpenSP8LocationE
libostyle.so.0:_ZN14OpenJade_DSSSL29StringLessOrEqualPrimitiveObj13primitiveCallEiPPNS_5ELObjERNS_11EvalContextERNS_11InterpreterERKN6OpenSP8LocationE
libostyle.so.0:_ZN14OpenJade_DSSSL2VM10stackTraceEv
libostyle.so.0:_ZN14OpenJade_DSSSL2VM17setClosureArgToCCEv
libostyle.so.0:_ZN14OpenJade_DSSSL2VM4evalEPKNS_4InsnEPPNS_5ELObjES5_
libostyle.so.0:_ZN14OpenJade_DSSSL2VM4initEv
libostyle.so.0:_ZN14OpenJade_DSSSL2VM8popFrameEv
libostyle.so.0:_ZN14OpenJade_DSSSL2VM9growStackEi
libostyle.so.0:_ZN14OpenJade_DSSSL2VM9initStackEv
libostyle.so.0:_ZN14OpenJade_DSSSL2VM9pushFrameEPKNS_4InsnEi
libostyle.so.0:_ZN14OpenJade_DSSSL2VMC1ERNS_11EvalContextERNS_11InterpreterE
libostyle.so.0:_ZN14OpenJade_DSSSL2VMC1ERNS_11InterpreterE
libostyle.so.0:_ZN14OpenJade_DSSSL2VMC2ERNS_11EvalContextERNS_11InterpreterE
libostyle.so.0:_ZN14OpenJade_DSSSL2VMC2ERNS_11InterpreterE
libostyle.so.0:_ZN14OpenJade_DSSSL2VMD0Ev
libostyle.so.0:_ZN14OpenJade_DSSSL2VMD1Ev
libostyle.so.0:_ZN14OpenJade_DSSSL2VMD2Ev
libostyle.so.0:_ZN14OpenJade_DSSSL30CurrentNodeAddressPrimitiveObj13primitiveCallEiPPNS_5ELObjERNS_11EvalContextERNS_11InterpreterERKN6OpenSP8LocationE
libostyle.so.0:_ZN14OpenJade_DSSSL30CurrentNodePageNumberSosofoObj7processERNS_14ProcessContextE
libostyle.so.0:_ZN14OpenJade_DSSSL30GenericOptLengthSpecInheritedCC1EPKNS_10IdentifierEjMNS_10FOTBuilderEFvRKNS4_13OptLengthSpecEE
libostyle.so.0:_ZN14OpenJade_DSSSL30GenericOptLengthSpecInheritedCC2EPKNS_10IdentifierEjMNS_10FOTBuilderEFvRKNS4_13OptLengthSpecEE
libostyle.so.0:_ZN14OpenJade_DSSSL30HierarchicalNumberPrimitiveObj13primitiveCallEiPPNS_5ELObjERNS_11EvalContextERNS_11InterpreterERKN6OpenSP8LocationE
libostyle.so.0:_ZN14OpenJade_DSSSL30NamedNodeListNamesPrimitiveObj13primitiveCallEiPPNS_5ELObjERNS_11EvalContextERNS_11InterpreterERKN6OpenSP8LocationE
libostyle.so.0:_ZN14OpenJade_DSSSL30TimeGreaterOrEqualPrimitiveObj13primitiveCallEiPPNS_5ELObjERNS_11EvalContextERNS_11InterpreterERKN6OpenSP8LocationE
libostyle.so.0:_ZN14OpenJade_DSSSL31AncestorChildNumberPrimitiveObj13primitiveCallEiPPNS_5ELObjERNS_11EvalContextERNS_11InterpreterERKN6OpenSP8LocationE
libostyle.so.0:_ZN14OpenJade_DSSSL31EntityNameNormalizePrimitiveObj13primitiveCallEiPPNS_5ELObjERNS_11EvalContextERNS_11InterpreterERKN6OpenSP8LocationE
libostyle.so.0:_ZN14OpenJade_DSSSL31GenericOptInlineSpaceInheritedCC1EPKNS_10IdentifierEjMNS_10FOTBuilderEFvRKNS4_14OptInlineSpaceEE
libostyle.so.0:_ZN14OpenJade_DSSSL31GenericOptInlineSpaceInheritedCC2EPKNS_10IdentifierEjMNS_10FOTBuilderEFvRKNS4_14OptInlineSpaceEE
libostyle.so.0:_ZN14OpenJade_DSSSL31ProcessChildrenTrimPrimitiveObj13primitiveCallEiPPNS_5ELObjERNS_11EvalContextERNS_11InterpreterERKN6OpenSP8LocationE
libostyle.so.0:_ZN14OpenJade_DSSSL31SgmlDocumentAddressPrimitiveObj13primitiveCallEiPPNS_5ELObjERNS_11EvalContextERNS_11InterpreterERKN6OpenSP8LocationE
libostyle.so.0:_ZN14OpenJade_DSSSL32GeneralNameNormalizePrimitiveObj13primitiveCallEiPPNS_5ELObjERNS_11EvalContextERNS_11InterpreterERKN6OpenSP8LocationE
libostyle.so.0:_ZN14OpenJade_DSSSL32ProcessElementWithIdPrimitiveObj13primitiveCallEiPPNS_5ELObjERNS_11EvalContextERNS_11InterpreterERKN6OpenSP8LocationE
libostyle.so.0:_ZN14OpenJade_DSSSL32SosofoDiscardLabeledPrimitiveObj13primitiveCallEiPPNS_5ELObjERNS_11EvalContextERNS_11InterpreterERKN6OpenSP8LocationE
libostyle.so.0:_ZN14OpenJade_DSSSL33EntityAttributeStringPrimitiveObj13primitiveCallEiPPNS_5ELObjERNS_11EvalContextERNS_11InterpreterERKN6OpenSP8LocationE
libostyle.so.0:_ZN14OpenJade_DSSSL33IsAbsoluteLastSiblingPrimitiveObj13primitiveCallEiPPNS_5ELObjERNS_11EvalContextERNS_11InterpreterERKN6OpenSP8LocationE
libostyle.so.0:_ZN14OpenJade_DSSSL34IsAbsoluteFirstSiblingPrimitiveObj13primitiveCallEiPPNS_5ELObjERNS_11EvalContextERNS_11InterpreterERKN6OpenSP8LocationE
libostyle.so.0:_ZN14OpenJade_DSSSL34NamedNodeListNormalizePrimitiveObj13primitiveCallEiPPNS_5ELObjERNS_11EvalContextERNS_11InterpreterERKN6OpenSP8LocationE
libostyle.so.0:_ZN14OpenJade_DSSSL34ProcessFirstDescendantPrimitiveObj13primitiveCallEiPPNS_5ELObjERNS_11EvalContextERNS_11InterpreterERKN6OpenSP8LocationE
libostyle.so.0:_ZN14OpenJade_DSSSL35EntityGeneratedSystemIdPrimitiveObj13primitiveCallEiPPNS_5ELObjERNS_11EvalContextERNS_11InterpreterERKN6OpenSP8LocationE
libostyle.so.0:_ZN14OpenJade_DSSSL35ProcessMatchingChildrenPrimitiveObj13primitiveCallEiPPNS_5ELObjERNS_11EvalContextERNS_11InterpreterERKN6OpenSP8LocationE
libostyle.so.0:_ZN14OpenJade_DSSSL36InheritedAttributeStringPrimitiveObj13primitiveCallEiPPNS_5ELObjERNS_11EvalContextERNS_11InterpreterERKN6OpenSP8LocationE
libostyle.so.0:_ZN14OpenJade_DSSSL37NotationGeneratedSystemIdPrimitiveObj13primitiveCallEiPPNS_5ELObjERNS_11EvalContextERNS_11InterpreterERKN6OpenSP8LocationE
libostyle.so.0:_ZN14OpenJade_DSSSL39CallWithCurrentContinuationPrimitiveObj4callERNS_2VMERKN6OpenSP8LocationEPKNS_4InsnE
libostyle.so.0:_ZN14OpenJade_DSSSL39CallWithCurrentContinuationPrimitiveObj8tailCallERNS_2VMERKN6OpenSP8LocationEi
libostyle.so.0:_ZN14OpenJade_DSSSL39CallWithCurrentContinuationPrimitiveObjC1Ev
libostyle.so.0:_ZN14OpenJade_DSSSL39CallWithCurrentContinuationPrimitiveObjC2Ev
libostyle.so.0:_ZN14OpenJade_DSSSL39CurrentNodePageNumberSosofoPrimitiveObj13primitiveCallEiPPNS_5ELObjERNS_11EvalContextERNS_11InterpreterERKN6OpenSP8LocationE
libostyle.so.0:_ZN14OpenJade_DSSSL39HierarchicalNumberRecursivePrimitiveObj13primitiveCallEiPPNS_5ELObjERNS_11EvalContextERNS_11InterpreterERKN6OpenSP8LocationE
libostyle.so.0:_ZN14OpenJade_DSSSL43InheritedElementAttributeStringPrimitiveObj13primitiveCallEiPPNS_5ELObjERNS_11EvalContextERNS_11InterpreterERKN6OpenSP8LocationE
libostyle.so.0:_ZN14OpenJade_DSSSL4InsnD0Ev
libostyle.so.0:_ZN14OpenJade_DSSSL4InsnD1Ev
libostyle.so.0:_ZN14OpenJade_DSSSL4InsnD2Ev
libostyle.so.0:_ZN14OpenJade_DSSSL4Unit10tryComputeEbRNS_11InterpreterE
libostyle.so.0:_ZN14OpenJade_DSSSL4Unit13setDefinitionERN6OpenSP5OwnerINS_10ExpressionEEEjRKNS1_8LocationE
libostyle.so.0:_ZN14OpenJade_DSSSL4Unit15resolveQuantityEbRNS_11InterpreterEdi
libostyle.so.0:_ZN14OpenJade_DSSSL4Unit15resolveQuantityEbRNS_11InterpreterEli
libostyle.so.0:_ZN14OpenJade_DSSSL4Unit5scaleElilRl
libostyle.so.0:_ZN14OpenJade_DSSSL4Unit8setValueEd
libostyle.so.0:_ZN14OpenJade_DSSSL4Unit8setValueEl
libostyle.so.0:_ZN14OpenJade_DSSSL4UnitC1ERKN6OpenSP6StringIjEE
libostyle.so.0:_ZN14OpenJade_DSSSL4UnitC2ERKN6OpenSP6StringIjEE
libostyle.so.0:_ZN14OpenJade_DSSSL5ELObj10asFunctionEv
libostyle.so.0:_ZN14OpenJade_DSSSL5ELObj10asLanguageEv
libostyle.so.0:_ZN14OpenJade_DSSSL5ELObj10asNodeListEv
libostyle.so.0:_ZN14OpenJade_DSSSL5ELObj10stringDataERPKjRm
libostyle.so.0:_ZN14OpenJade_DSSSL5ELObj11lengthValueERl
libostyle.so.0:_ZN14OpenJade_DSSSL5ELObj12asColorSpaceEv
libostyle.so.0:_ZN14OpenJade_DSSSL5ELObj13asInlineSpaceEv
libostyle.so.0:_ZN14OpenJade_DSSSL5ELObj13quantityValueERlRdRi
libostyle.so.0:_ZN14OpenJade_DSSSL5ELObj14asAppendSosofoEv
libostyle.so.0:_ZN14OpenJade_DSSSL5ELObj14asDisplaySpaceEv
libostyle.so.0:_ZN14OpenJade_DSSSL5ELObj15asNamedNodeListEv
libostyle.so.0:_ZN14OpenJade_DSSSL5ELObj15convertToStringEv
libostyle.so.0:_ZN14OpenJade_DSSSL5ELObj16inexactRealValueERd
libostyle.so.0:_ZN14OpenJade_DSSSL5ELObj17asGlyphSubstTableEv
libostyle.so.0:_ZN14OpenJade_DSSSL5ELObj17exactIntegerValueERl
libostyle.so.0:_ZN14OpenJade_DSSSL5ELObj17resolveQuantitiesEbRNS_11InterpreterERKN6OpenSP8LocationE
libostyle.so.0:_ZN14OpenJade_DSSSL5ELObj20optSingletonNodeListERNS_11EvalContextERNS_11InterpreterERN14OpenJade_Grove7NodePtrE
libostyle.so.0:_ZN14OpenJade_DSSSL5ELObj5asBoxEv
libostyle.so.0:_ZN14OpenJade_DSSSL5ELObj5printERNS_11InterpreterERN6OpenSP16OutputCharStreamE
libostyle.so.0:_ZN14OpenJade_DSSSL5ELObj5printERNS_11InterpreterERN6OpenSP16OutputCharStreamEj
libostyle.so.0:_ZN14OpenJade_DSSSL5ELObj6asPairEv
libostyle.so.0:_ZN14OpenJade_DSSSL5ELObj7asColorEv
libostyle.so.0:_ZN14OpenJade_DSSSL5ELObj7asStyleEv
libostyle.so.0:_ZN14OpenJade_DSSSL5ELObj7isEqualERS0_
libostyle.so.0:_ZN14OpenJade_DSSSL5ELObj7isEquivERS0_
libostyle.so.0:_ZN14OpenJade_DSSSL5ELObj8asSosofoEv
libostyle.so.0:_ZN14OpenJade_DSSSL5ELObj8asSymbolEv
libostyle.so.0:_ZN14OpenJade_DSSSL5ELObj8asVectorEv
libostyle.so.0:_ZN14OpenJade_DSSSL5ELObj9asAddressEv
libostyle.so.0:_ZN14OpenJade_DSSSL5ELObj9asKeywordEv
libostyle.so.0:_ZN14OpenJade_DSSSL5ELObj9charValueERj
libostyle.so.0:_ZN14OpenJade_DSSSL5ELObj9realValueERd
libostyle.so.0:_ZN14OpenJade_DSSSL5ELObjC1Ev
libostyle.so.0:_ZN14OpenJade_DSSSL5ELObjC2Ev
libostyle.so.0:_ZN14OpenJade_DSSSL5RuleCC1EPKNS_10IdentifierEjPNS_5ELObjERNS_11InterpreterE
libostyle.so.0:_ZN14OpenJade_DSSSL5RuleCC2EPKNS_10IdentifierEjPNS_5ELObjERNS_11InterpreterE
libostyle.so.0:_ZN14OpenJade_DSSSL6BoxObj5asBoxEv
libostyle.so.0:_ZN14OpenJade_DSSSL6BoxObjC1EPNS_5ELObjE
libostyle.so.0:_ZN14OpenJade_DSSSL6BoxObjC1Ev
libostyle.so.0:_ZN14OpenJade_DSSSL6BoxObjC2EPNS_5ELObjE
libostyle.so.0:_ZN14OpenJade_DSSSL6BoxObjC2Ev
libostyle.so.0:_ZN14OpenJade_DSSSL6ColorCC1EPKNS_10IdentifierEjPNS_8ColorObjERNS_11InterpreterE
libostyle.so.0:_ZN14OpenJade_DSSSL6ColorCC2EPKNS_10IdentifierEjPNS_8ColorObjERNS_11InterpreterE
libostyle.so.0:_ZN14OpenJade_DSSSL6NilObj5printERNS_11InterpreterERN6OpenSP16OutputCharStreamE
libostyle.so.0:_ZN14OpenJade_DSSSL6NilObjC1Ev
libostyle.so.0:_ZN14OpenJade_DSSSL6NilObjC2Ev
libostyle.so.0:_ZN14OpenJade_DSSSL6OrInsnC1EN6OpenSP8ConstPtrINS_4InsnEEES4_
libostyle.so.0:_ZN14OpenJade_DSSSL6OrInsnC2EN6OpenSP8ConstPtrINS_4InsnEEES4_
libostyle.so.0:_ZN14OpenJade_DSSSL7AndInsnC1EN6OpenSP8ConstPtrINS_4InsnEEES4_
libostyle.so.0:_ZN14OpenJade_DSSSL7AndInsnC2EN6OpenSP8ConstPtrINS_4InsnEEES4_
libostyle.so.0:_ZN14OpenJade_DSSSL7BorderCC1EPKNS_10IdentifierEjPNS_5ELObjERNS_11InterpreterE
libostyle.so.0:_ZN14OpenJade_DSSSL7BorderCC2EPKNS_10IdentifierEjPNS_5ELObjERNS_11InterpreterE
libostyle.so.0:_ZN14OpenJade_DSSSL7BoxInsnC1EN6OpenSP8ConstPtrINS_4InsnEEE
libostyle.so.0:_ZN14OpenJade_DSSSL7BoxInsnC2EN6OpenSP8ConstPtrINS_4InsnEEE
libostyle.so.0:_ZN14OpenJade_DSSSL7CharObj5printERNS_11InterpreterERN6OpenSP16OutputCharStreamE
libostyle.so.0:_ZN14OpenJade_DSSSL7CharObj7isEqualERNS_5ELObjE
libostyle.so.0:_ZN14OpenJade_DSSSL7CharObj9charValueERj
libostyle.so.0:_ZN14OpenJade_DSSSL7CharObjC1Ej
libostyle.so.0:_ZN14OpenJade_DSSSL7CharObjC2Ej
libostyle.so.0:_ZN14OpenJade_DSSSL7FlowObj12isDisplayNICEPKNS_10IdentifierE
libostyle.so.0:_ZN14OpenJade_DSSSL7FlowObj13setDisplayNICERNS_10FOTBuilder10DisplayNICEPKNS_10IdentifierEPNS_5ELObjERKN6OpenSP8LocationERNS_11InterpreterE
libostyle.so.0:_ZN14OpenJade_DSSSL7FlowObj15setImplicitCharEPNS_5ELObjERKN6OpenSP8LocationERNS_11InterpreterE
libostyle.so.0:_ZN14OpenJade_DSSSL7FlowObj16setNonInheritedCEPKNS_10IdentifierEPNS_5ELObjERKN6OpenSP8LocationERNS_11InterpreterE
libostyle.so.0:_ZN14OpenJade_DSSSL7FlowObj17asCompoundFlowObjEv
libostyle.so.0:_ZN14OpenJade_DSSSL7FlowObj7processERNS_14ProcessContextE
libostyle.so.0:_ZN14OpenJade_DSSSL7FlowObj8popStyleERNS_14ProcessContextEj
libostyle.so.0:_ZN14OpenJade_DSSSL7FlowObj9pushStyleERNS_14ProcessContextERj
libostyle.so.0:_ZN14OpenJade_DSSSL7FlowObjC1Ev
libostyle.so.0:_ZN14OpenJade_DSSSL7FlowObjC2Ev
libostyle.so.0:_ZN14OpenJade_DSSSL7LangObj10addTolowerEjj
libostyle.so.0:_ZN14OpenJade_DSSSL7LangObj10addToupperEjj
libostyle.so.0:_ZN14OpenJade_DSSSL7LangObj10asLanguageEv
libostyle.so.0:_ZN14OpenJade_DSSSL7LangObj13addDefaultPosEv
libostyle.so.0:_ZN14OpenJade_DSSSL7LangObj14addLevelWeightEjRKN6OpenSP6StringIjEE
libostyle.so.0:_ZN14OpenJade_DSSSL7LangObj15addCollatingPosERKN6OpenSP6StringIjEE
libostyle.so.0:_ZN14OpenJade_DSSSL7LangObj18addCollatingSymbolERKN6OpenSP6StringIjEE
libostyle.so.0:_ZN14OpenJade_DSSSL7LangObj24addMultiCollatingElementERKN6OpenSP6StringIjEES5_
libostyle.so.0:_ZN14OpenJade_DSSSL7LangObj7compileEv
libostyle.so.0:_ZN14OpenJade_DSSSL7LangObj8addLevelERKNS0_9LevelSortE
libostyle.so.0:_ZN14OpenJade_DSSSL7LangObjC1Ev
libostyle.so.0:_ZN14OpenJade_DSSSL7LangObjC2Ev
libostyle.so.0:_ZN14OpenJade_DSSSL7LangObjD0Ev
libostyle.so.0:_ZN14OpenJade_DSSSL7LangObjD1Ev
libostyle.so.0:_ZN14OpenJade_DSSSL7LangObjD2Ev
libostyle.so.0:_ZN14OpenJade_DSSSL7PairObj17resolveQuantitiesEbRNS_11InterpreterERKN6OpenSP8LocationE
libostyle.so.0:_ZN14OpenJade_DSSSL7PairObj5printERNS_11InterpreterERN6OpenSP16OutputCharStreamE
libostyle.so.0:_ZN14OpenJade_DSSSL7PairObj6asPairEv
libostyle.so.0:_ZN14OpenJade_DSSSL7PairObj7isEqualERNS_5ELObjE
libostyle.so.0:_ZN14OpenJade_DSSSL7PairObj7isEquivERNS_5ELObjE
libostyle.so.0:_ZN14OpenJade_DSSSL7PairObjC1EPNS_5ELObjES2_
libostyle.so.0:_ZN14OpenJade_DSSSL7PairObjC2EPNS_5ELObjES2_
libostyle.so.0:_ZN14OpenJade_DSSSL7Pattern11IdQualifierC1ERKN6OpenSP6StringIjEE
libostyle.so.0:_ZN14OpenJade_DSSSL7Pattern11IdQualifierC2ERKN6OpenSP6StringIjEE
libostyle.so.0:_ZN14OpenJade_DSSSL7Pattern14ClassQualifierC1ERKN6OpenSP6StringIjEE
libostyle.so.0:_ZN14OpenJade_DSSSL7Pattern14ClassQualifierC2ERKN6OpenSP6StringIjEE
libostyle.so.0:_ZN14OpenJade_DSSSL7Pattern14computeTrivialERKN6OpenSP5IListINS0_7ElementEEE
libostyle.so.0:_ZN14OpenJade_DSSSL7Pattern15matchAncestors1ERKN6OpenSP9IListIterINS0_7ElementEEERKN14OpenJade_Grove7NodePtrERNS0_12MatchContextE
libostyle.so.0:_ZN14OpenJade_DSSSL7Pattern17ChildrenQualifierC1ERN6OpenSP5IListINS0_7ElementEEE
libostyle.so.0:_ZN14OpenJade_DSSSL7Pattern17ChildrenQualifierC2ERN6OpenSP5IListINS0_7ElementEEE
libostyle.so.0:_ZN14OpenJade_DSSSL7Pattern17PriorityQualifierC1El
libostyle.so.0:_ZN14OpenJade_DSSSL7Pattern17PriorityQualifierC2El
libostyle.so.0:_ZN14OpenJade_DSSSL7Pattern18AttributeQualifierC1ERKN6OpenSP6StringIjEES6_
libostyle.so.0:_ZN14OpenJade_DSSSL7Pattern18AttributeQualifierC2ERKN6OpenSP6StringIjEES6_
libostyle.so.0:_ZN14OpenJade_DSSSL7Pattern18compareSpecificityERKS0_S2_
libostyle.so.0:_ZN14OpenJade_DSSSL7Pattern19ImportanceQualifierC1El
libostyle.so.0:_ZN14OpenJade_DSSSL7Pattern19ImportanceQualifierC2El
libostyle.so.0:_ZN14OpenJade_DSSSL7Pattern26AttributeHasValueQualifierC1ERKN6OpenSP6StringIjEE
libostyle.so.0:_ZN14OpenJade_DSSSL7Pattern26AttributeHasValueQualifierC2ERKN6OpenSP6StringIjEE
libostyle.so.0:_ZN14OpenJade_DSSSL7Pattern30AttributeMissingValueQualifierC1ERKN6OpenSP6StringIjEE
libostyle.so.0:_ZN14OpenJade_DSSSL7Pattern30AttributeMissingValueQualifierC2ERKN6OpenSP6StringIjEE
libostyle.so.0:_ZN14OpenJade_DSSSL7Pattern7ElementC1ERKN6OpenSP6StringIjEE
libostyle.so.0:_ZN14OpenJade_DSSSL7Pattern7ElementC2ERKN6OpenSP6StringIjEE
libostyle.so.0:_ZN14OpenJade_DSSSL7Pattern9Qualifier14matchAttributeERKN6OpenSP6StringIjEES6_RKN14OpenJade_Grove7NodePtrERNS0_12MatchContextE
libostyle.so.0:_ZN14OpenJade_DSSSL7Pattern9QualifierD0Ev
libostyle.so.0:_ZN14OpenJade_DSSSL7Pattern9QualifierD1Ev
libostyle.so.0:_ZN14OpenJade_DSSSL7Pattern9QualifierD2Ev
libostyle.so.0:_ZN14OpenJade_DSSSL7PatternC1ERN6OpenSP5IListINS0_7ElementEEE
libostyle.so.0:_ZN14OpenJade_DSSSL7PatternC1Ev
libostyle.so.0:_ZN14OpenJade_DSSSL7PatternC2ERN6OpenSP5IListINS0_7ElementEEE
libostyle.so.0:_ZN14OpenJade_DSSSL7PatternC2Ev
libostyle.so.0:_ZN14OpenJade_DSSSL7PopInsnC1EN6OpenSP8ConstPtrINS_4InsnEEE
libostyle.so.0:_ZN14OpenJade_DSSSL7PopInsnC2EN6OpenSP8ConstPtrINS_4InsnEEE
libostyle.so.0:_ZN14OpenJade_DSSSL7RealObj13quantityValueERlRdRi
libostyle.so.0:_ZN14OpenJade_DSSSL7RealObj16inexactRealValueERd
libostyle.so.0:_ZN14OpenJade_DSSSL7RealObj5printERNS_11InterpreterERN6OpenSP16OutputCharStreamE
libostyle.so.0:_ZN14OpenJade_DSSSL7RealObj7isEqualERNS_5ELObjE
libostyle.so.0:_ZN14OpenJade_DSSSL7RealObj9realValueERd
libostyle.so.0:_ZN14OpenJade_DSSSL7RealObjC1Ed
libostyle.so.0:_ZN14OpenJade_DSSSL7RealObjC2Ed
libostyle.so.0:_ZN14OpenJade_DSSSL7TrueObj5printERNS_11InterpreterERN6OpenSP16OutputCharStreamE
libostyle.so.0:_ZN14OpenJade_DSSSL7TrueObjC1Ev
libostyle.so.0:_ZN14OpenJade_DSSSL7TrueObjC2Ev
libostyle.so.0:_ZN14OpenJade_DSSSL8CaseInsnC1EPNS_5ELObjEN6OpenSP8ConstPtrINS_4InsnEEES6_
libostyle.so.0:_ZN14OpenJade_DSSSL8CaseInsnC2EPNS_5ELObjEN6OpenSP8ConstPtrINS_4InsnEEES6_
libostyle.so.0:_ZN14OpenJade_DSSSL8ColorObj7asColorEv
libostyle.so.0:_ZN14OpenJade_DSSSL8ConsInsnC1EN6OpenSP8ConstPtrINS_4InsnEEE
libostyle.so.0:_ZN14OpenJade_DSSSL8ConsInsnC2EN6OpenSP8ConstPtrINS_4InsnEEE
libostyle.so.0:_ZN14OpenJade_DSSSL8DssslApp10readEntityERKN6OpenSP6StringIjEERS3_
libostyle.so.0:_ZN14OpenJade_DSSSL8DssslApp10splitOffIdERN6OpenSP6StringIjEES4_
libostyle.so.0:_ZN14OpenJade_DSSSL8DssslApp12getAttributeERPKjRmRN6OpenSP6StringIjEES8_
libostyle.so.0:_ZN14OpenJade_DSSSL8DssslApp12processGroveEv
libostyle.so.0:_ZN14OpenJade_DSSSL8DssslApp12processSysidERKN6OpenSP6StringIjEE
libostyle.so.0:_ZN14OpenJade_DSSSL8DssslApp13processOptionEcPKc
libostyle.so.0:_ZN14OpenJade_DSSSL8DssslApp14generateEventsEPN6OpenSP22ErrorCountEventHandlerE
libostyle.so.0:_ZN14OpenJade_DSSSL8DssslApp14handleSimplePiEPKjmRKN6OpenSP8LocationE
libostyle.so.0:_ZN14OpenJade_DSSSL8DssslApp14initSpecParserEv
libostyle.so.0:_ZN14OpenJade_DSSSL8DssslApp15handleAttlistPiEPKjmRKN6OpenSP8LocationE
libostyle.so.0:_ZN14OpenJade_DSSSL8DssslApp18getDssslSpecFromPiEPKjmRKN6OpenSP8LocationE
libostyle.so.0:_ZN14OpenJade_DSSSL8DssslApp21getDssslSpecFromGroveEv
libostyle.so.0:_ZN14OpenJade_DSSSL8DssslApp3isSEj
libostyle.so.0:_ZN14OpenJade_DSSSL8DssslApp4initEiPPc
libostyle.so.0:_ZN14OpenJade_DSSSL8DssslApp4loadERKN6OpenSP6StringIjEERKNS1_6VectorIS3_EERKN14OpenJade_Grove7NodePtrERSB_S9_
libostyle.so.0:_ZN14OpenJade_DSSSL8DssslApp5skipSERPKjRm
libostyle.so.0:_ZN14OpenJade_DSSSL8DssslApp7matchCiEPKjmPKc
libostyle.so.0:_ZN14OpenJade_DSSSL8DssslApp7matchCiERKN6OpenSP6StringIjEEPKc
libostyle.so.0:_ZN14OpenJade_DSSSL8DssslApp8mapSysidERN6OpenSP6StringIjEE
libostyle.so.0:_ZN14OpenJade_DSSSL8DssslAppC1Ei
libostyle.so.0:_ZN14OpenJade_DSSSL8DssslAppC2Ei
libostyle.so.0:_ZN14OpenJade_DSSSL8ErrorObj5printERNS_11InterpreterERN6OpenSP16OutputCharStreamE
libostyle.so.0:_ZN14OpenJade_DSSSL8ErrorObjC1Ev
libostyle.so.0:_ZN14OpenJade_DSSSL8ErrorObjC2Ev
libostyle.so.0:_ZN14OpenJade_DSSSL8FalseObj5printERNS_11InterpreterERN6OpenSP16OutputCharStreamE
libostyle.so.0:_ZN14OpenJade_DSSSL8FalseObjC1Ev
libostyle.so.0:_ZN14OpenJade_DSSSL8FalseObjC2Ev
libostyle.so.0:_ZN14OpenJade_DSSSL8IgnoredCC1EPKNS_10IdentifierEjPNS_5ELObjERNS_11InterpreterE
libostyle.so.0:_ZN14OpenJade_DSSSL8IgnoredCC2EPKNS_10IdentifierEjPNS_5ELObjERNS_11InterpreterE
libostyle.so.0:_ZN14OpenJade_DSSSL8LangDataC1Ev
libostyle.so.0:_ZN14OpenJade_DSSSL8LangDataC2Ev
libostyle.so.0:_ZN14OpenJade_DSSSL8StyleObj7asStyleEv
libostyle.so.0:_ZN14OpenJade_DSSSL8TestInsnC1EN6OpenSP8ConstPtrINS_4InsnEEES4_
libostyle.so.0:_ZN14OpenJade_DSSSL8TestInsnC2EN6OpenSP8ConstPtrINS_4InsnEEES4_
libostyle.so.0:_ZN14OpenJade_DSSSL9ApplyInsnC1EiRKN6OpenSP8LocationENS1_8ConstPtrINS_4InsnEEE
libostyle.so.0:_ZN14OpenJade_DSSSL9ApplyInsnC2EiRKN6OpenSP8LocationENS1_8ConstPtrINS_4InsnEEE
libostyle.so.0:_ZN14OpenJade_DSSSL9FontSizeCC1EPKNS_10IdentifierEjl
libostyle.so.0:_ZN14OpenJade_DSSSL9FontSizeCC2EPKNS_10IdentifierEjl
libostyle.so.0:_ZN14OpenJade_DSSSL9LengthObj11lengthValueERl
libostyle.so.0:_ZN14OpenJade_DSSSL9LengthObj13quantityValueERlRdRi
libostyle.so.0:_ZN14OpenJade_DSSSL9LengthObj5printERNS_11InterpreterERN6OpenSP16OutputCharStreamE
libostyle.so.0:_ZN14OpenJade_DSSSL9LengthObj7isEqualERNS_5ELObjE
libostyle.so.0:_ZN14OpenJade_DSSSL9LengthObjC1El
libostyle.so.0:_ZN14OpenJade_DSSSL9LengthObjC2El
libostyle.so.0:_ZN14OpenJade_DSSSL9SosofoObj11isCharacterEv
libostyle.so.0:_ZN14OpenJade_DSSSL9SosofoObj14characterStyleERNS_14ProcessContextERPNS_8StyleObjERNS_10FOTBuilder12CharacterNICE
libostyle.so.0:_ZN14OpenJade_DSSSL9SosofoObj16tableBorderStyleERPNS_8StyleObjE
libostyle.so.0:_ZN14OpenJade_DSSSL9SosofoObj6isRuleEv
libostyle.so.0:_ZN14OpenJade_DSSSL9SosofoObj8asSosofoEv
libostyle.so.0:_ZN14OpenJade_DSSSL9SosofoObj9ruleStyleERNS_14ProcessContextERPNS_8StyleObjE
libostyle.so.0:_ZN14OpenJade_DSSSL9StringObj10stringDataERPKjRm
libostyle.so.0:_ZN14OpenJade_DSSSL9StringObj15convertToStringEv
libostyle.so.0:_ZN14OpenJade_DSSSL9StringObj5printERNS_11InterpreterERN6OpenSP16OutputCharStreamE
libostyle.so.0:_ZN14OpenJade_DSSSL9StringObj7isEqualERNS_5ELObjE
libostyle.so.0:_ZN14OpenJade_DSSSL9StringObjC1EPKjm
libostyle.so.0:_ZN14OpenJade_DSSSL9StringObjC1ERKN6OpenSP6StringIjEE
libostyle.so.0:_ZN14OpenJade_DSSSL9StringObjC1Ev
libostyle.so.0:_ZN14OpenJade_DSSSL9StringObjC2EPKjm
libostyle.so.0:_ZN14OpenJade_DSSSL9StringObjC2ERKN6OpenSP6StringIjEE
libostyle.so.0:_ZN14OpenJade_DSSSL9StringObjC2Ev
libostyle.so.0:_ZN14OpenJade_DSSSL9StyleSpecC1ERN6OpenSP6VectorINS1_8ConstPtrINS_10InheritedCEEEEES7_
libostyle.so.0:_ZN14OpenJade_DSSSL9StyleSpecC2ERN6OpenSP6VectorINS1_8ConstPtrINS_10InheritedCEEEEES7_
libostyle.so.0:_ZN14OpenJade_DSSSL9SymbolObj15convertToStringEv
libostyle.so.0:_ZN14OpenJade_DSSSL9SymbolObj5printERNS_11InterpreterERN6OpenSP16OutputCharStreamE
libostyle.so.0:_ZN14OpenJade_DSSSL9SymbolObj8asSymbolEv
libostyle.so.0:_ZN14OpenJade_DSSSL9SymbolObjC1EPNS_9StringObjE
libostyle.so.0:_ZN14OpenJade_DSSSL9SymbolObjC2EPNS_9StringObjE
libostyle.so.0:_ZN14OpenJade_DSSSL9UnboxInsnC1EN6OpenSP8ConstPtrINS_4InsnEEE
libostyle.so.0:_ZN14OpenJade_DSSSL9UnboxInsnC2EN6OpenSP8ConstPtrINS_4InsnEEE
libostyle.so.0:_ZN14OpenJade_DSSSL9VectorObj17resolveQuantitiesEbRNS_11InterpreterERKN6OpenSP8LocationE
libostyle.so.0:_ZN14OpenJade_DSSSL9VectorObj5printERNS_11InterpreterERN6OpenSP16OutputCharStreamE
libostyle.so.0:_ZN14OpenJade_DSSSL9VectorObj7isEqualERNS_5ELObjE
libostyle.so.0:_ZN14OpenJade_DSSSL9VectorObj7isEquivERNS_5ELObjE
libostyle.so.0:_ZN14OpenJade_DSSSL9VectorObj8asVectorEv
libostyle.so.0:_ZN14OpenJade_DSSSL9VectorObjC1ERN6OpenSP6VectorIPNS_5ELObjEEE
libostyle.so.0:_ZN14OpenJade_DSSSL9VectorObjC1Ev
libostyle.so.0:_ZN14OpenJade_DSSSL9VectorObjC2ERN6OpenSP6VectorIPNS_5ELObjEEE
libostyle.so.0:_ZN14OpenJade_DSSSL9VectorObjC2Ev
libostyle.so.0:_ZN14OpenJade_DSSSLeqERKN6OpenSP6StringIjEEPKc
libostyle.so.0:_ZN9Collector11DynamicRootD0Ev
libostyle.so.0:_ZN9Collector11DynamicRootD1Ev
libostyle.so.0:_ZN9Collector11DynamicRootD2Ev
libostyle.so.0:_ZN9Collector13makePermanentEPNS_6ObjectE
libostyle.so.0:_ZN9Collector13makeReadOnly1EPNS_6ObjectE
libostyle.so.0:_ZN9Collector16unallocateObjectEPv
libostyle.so.0:_ZN9Collector17traceDynamicRootsEv
libostyle.so.0:_ZN9Collector5BlockC1EPS0_mmPNS_6ObjectE
libostyle.so.0:_ZN9Collector5BlockC2EPS0_mmPNS_6ObjectE
libostyle.so.0:_ZN9Collector5checkEv
libostyle.so.0:_ZN9Collector7collectEv
libostyle.so.0:_ZN9Collector9makeSpaceEv
libostyle.so.0:_ZN9CollectorC1Em
libostyle.so.0:_ZN9CollectorC2Em
libostyle.so.0:_ZN9CollectorD0Ev
libostyle.so.0:_ZN9CollectorD1Ev
libostyle.so.0:_ZN9CollectorD2Ev
libostyle.so.0:_ZNK14OpenJade_DSSSL10AppendInsn7executeERNS_2VME
libostyle.so.0:_ZNK14OpenJade_DSSSL10BoxArgInsn7executeERNS_2VME
libostyle.so.0:_ZNK14OpenJade_DSSSL10BoxFlowObj16hasNonInheritedCEPKNS_10IdentifierE
libostyle.so.0:_ZNK14OpenJade_DSSSL10BoxFlowObj4copyER9Collector
libostyle.so.0:_ZNK14OpenJade_DSSSL10ClosureObj15traceSubObjectsER9Collector
libostyle.so.0:_ZNK14OpenJade_DSSSL10Expression13constantValueEv
libostyle.so.0:_ZNK14OpenJade_DSSSL10Expression7keywordEv
libostyle.so.0:_ZNK14OpenJade_DSSSL10FOTBuilder15GlyphSubstTable5substERKNS0_7GlyphIdE
libostyle.so.0:_ZNK14OpenJade_DSSSL10FOTBuilder16ExtensionFlowObj26asCompoundExtensionFlowObjEv
libostyle.so.0:_ZNK14OpenJade_DSSSL10FOTBuilder16ExtensionFlowObj6hasNICERKN6OpenSP6StringIjEE
libostyle.so.0:_ZNK14OpenJade_DSSSL10FOTBuilder24CompoundExtensionFlowObj16hasPrincipalPortEv
libostyle.so.0:_ZNK14OpenJade_DSSSL10FOTBuilder24CompoundExtensionFlowObj26asCompoundExtensionFlowObjEv
libostyle.so.0:_ZNK14OpenJade_DSSSL10FOTBuilder24CompoundExtensionFlowObj9portNamesERN6OpenSP6VectorINS2_6StringIjEEEE
libostyle.so.0:_ZNK14OpenJade_DSSSL10GlyphIdObj7glyphIdEv
libostyle.so.0:_ZNK14OpenJade_DSSSL10Identifier12computeValueEbRNS_11InterpreterE
libostyle.so.0:_ZNK14OpenJade_DSSSL10Identifier19computeBuiltinValueEbRNS_11InterpreterE
libostyle.so.0:_ZNK14OpenJade_DSSSL10Identifier7definedERjRN6OpenSP8LocationE
libostyle.so.0:_ZNK14OpenJade_DSSSL10InheritedC12invalidValueERKN6OpenSP8LocationERNS_11InterpreterE
libostyle.so.0:_ZNK14OpenJade_DSSSL10LengthSpec7convertERNS_10FOTBuilder10LengthSpecE
libostyle.so.0:_ZNK14OpenJade_DSSSL10LengthSpec7convertERNS_10FOTBuilder15TableLengthSpecE
libostyle.so.0:_ZNK14OpenJade_DSSSL10RefLangObj13areEquivalentERKN6OpenSP6StringIjEES5_j
libostyle.so.0:_ZNK14OpenJade_DSSSL10RefLangObj13isLessOrEqualERKN6OpenSP6StringIjEES5_
libostyle.so.0:_ZNK14OpenJade_DSSSL10RefLangObj6isLessERKN6OpenSP6StringIjEES5_
libostyle.so.0:_ZNK14OpenJade_DSSSL10RefLangObj7toLowerEj
libostyle.so.0:_ZNK14OpenJade_DSSSL10RefLangObj7toUpperEj
libostyle.so.0:_ZNK14OpenJade_DSSSL10ReturnInsn7executeERNS_2VME
libostyle.so.0:_ZNK14OpenJade_DSSSL10ReturnInsn8isReturnERi
libostyle.so.0:_ZNK14OpenJade_DSSSL10SetBoxInsn7executeERNS_2VME
libostyle.so.0:_ZNK14OpenJade_DSSSL10StyleStack5traceER9Collector
libostyle.so.0:_ZNK14OpenJade_DSSSL10TopRefInsn7executeERNS_2VME
libostyle.so.0:_ZNK14OpenJade_DSSSL10VectorInsn7executeERNS_2VME
libostyle.so.0:_ZNK14OpenJade_DSSSL11ClosureInsn7executeERNS_2VME
libostyle.so.0:_ZNK14OpenJade_DSSSL11Environment6lookupEPKNS_10IdentifierERbRiRj
libostyle.so.0:_ZNK14OpenJade_DSSSL11Environment9boundVarsERNS_12BoundVarListE
libostyle.so.0:_ZNK14OpenJade_DSSSL11GridFlowObj16hasNonInheritedCEPKNS_10IdentifierE
libostyle.so.0:_ZNK14OpenJade_DSSSL11Interpreter15convertCharNameERKN6OpenSP6StringIjEERj
libostyle.so.0:_ZNK14OpenJade_DSSSL11Interpreter15defaultLanguageEv
libostyle.so.0:_ZNK14OpenJade_DSSSL11Interpreter18defaultLanguageSetERjRN6OpenSP8LocationE
libostyle.so.0:_ZNK14OpenJade_DSSSL11Interpreter8sdataMapEN14OpenJade_Grove11GroveStringES2_Rj
libostyle.so.0:_ZNK14OpenJade_DSSSL11LinkFlowObj15traceSubObjectsER9Collector
libostyle.so.0:_ZNK14OpenJade_DSSSL11LinkFlowObj16hasNonInheritedCEPKNS_10IdentifierE
libostyle.so.0:_ZNK14OpenJade_DSSSL11LinkFlowObj4copyER9Collector
libostyle.so.0:_ZNK14OpenJade_DSSSL11PopModeInsn7executeERNS_2VME
libostyle.so.0:_ZNK14OpenJade_DSSSL11RuleFlowObj16hasNonInheritedCEPKNS_10IdentifierE
libostyle.so.0:_ZNK14OpenJade_DSSSL11RuleFlowObj4copyER9Collector
libostyle.so.0:_ZNK14OpenJade_DSSSL11VarStyleObj10appendIterERNS_12StyleObjIterE
libostyle.so.0:_ZNK14OpenJade_DSSSL11VarStyleObj15appendIterForceERNS_12StyleObjIterE
libostyle.so.0:_ZNK14OpenJade_DSSSL11VarStyleObj15traceSubObjectsER9Collector
libostyle.so.0:_ZNK14OpenJade_DSSSL11VarStyleObj16appendIterNormalERNS_12StyleObjIterE
libostyle.so.0:_ZNK14OpenJade_DSSSL11VarargsInsn7executeERNS_2VME
libostyle.so.0:_ZNK14OpenJade_DSSSL12BoxStackInsn7executeERNS_2VME
libostyle.so.0:_ZNK14OpenJade_DSSSL12CaseFailInsn7executeERNS_2VME
libostyle.so.0:_ZNK14OpenJade_DSSSL12CondFailInsn7executeERNS_2VME
libostyle.so.0:_ZNK14OpenJade_DSSSL12ConstantInsn7executeERNS_2VME
libostyle.so.0:_ZNK14OpenJade_DSSSL12FrameRefInsn7executeERNS_2VME
libostyle.so.0:_ZNK14OpenJade_DSSSL12IfExpression7canEvalEb
libostyle.so.0:_ZNK14OpenJade_DSSSL12MacroFlowObj15traceSubObjectsER9Collector
libostyle.so.0:_ZNK14OpenJade_DSSSL12MacroFlowObj16hasNonInheritedCEPKNS_10IdentifierE
libostyle.so.0:_ZNK14OpenJade_DSSSL12MacroFlowObj4copyER9Collector
libostyle.so.0:_ZNK14OpenJade_DSSSL12OrExpression7canEvalEb
libostyle.so.0:_ZNK14OpenJade_DSSSL12PrimitiveObj18noCurrentNodeErrorERNS_11InterpreterERKN6OpenSP8LocationE
libostyle.so.0:_ZNK14OpenJade_DSSSL12PrimitiveObj8argErrorERNS_11InterpreterERKN6OpenSP8LocationERKNS3_12MessageType3EjPNS_5ELObjE
libostyle.so.0:_ZNK14OpenJade_DSSSL12PushModeInsn7executeERNS_2VME
libostyle.so.0:_ZNK14OpenJade_DSSSL12ScoreFlowObj10SymbolType4copyEv
libostyle.so.0:_ZNK14OpenJade_DSSSL12ScoreFlowObj14LengthSpecType4copyEv
libostyle.so.0:_ZNK14OpenJade_DSSSL12ScoreFlowObj16hasNonInheritedCEPKNS_10IdentifierE
libostyle.so.0:_ZNK14OpenJade_DSSSL12ScoreFlowObj4copyER9Collector
libostyle.so.0:_ZNK14OpenJade_DSSSL12ScoreFlowObj8CharType4copyEv
libostyle.so.0:_ZNK14OpenJade_DSSSL12SetStyleInsn7executeERNS_2VME
libostyle.so.0:_ZNK14OpenJade_DSSSL12StackRefInsn7executeERNS_2VME
libostyle.so.0:_ZNK14OpenJade_DSSSL12StackSetInsn7executeERNS_2VME
libostyle.so.0:_ZNK14OpenJade_DSSSL12TestNullInsn7executeERNS_2VME
libostyle.so.0:_ZNK14OpenJade_DSSSL12VarStyleInsn7executeERNS_2VME
libostyle.so.0:_ZNK14OpenJade_DSSSL13ApplyBaseInsn10decodeArgsERNS_2VME
libostyle.so.0:_ZNK14OpenJade_DSSSL13CheckInitInsn7executeERNS_2VME
libostyle.so.0:_ZNK14OpenJade_DSSSL13LeaderFlowObj16hasNonInheritedCEPKNS_10IdentifierE
libostyle.so.0:_ZNK14OpenJade_DSSSL13LeaderFlowObj4copyER9Collector
libostyle.so.0:_ZNK14OpenJade_DSSSL13LengthSpecObj10lengthSpecEv
libostyle.so.0:_ZNK14OpenJade_DSSSL13LetExpression7canEvalEb
libostyle.so.0:_ZNK14OpenJade_DSSSL13MergeStyleObj10appendIterERNS_12StyleObjIterE
libostyle.so.0:_ZNK14OpenJade_DSSSL13MergeStyleObj15traceSubObjectsER9Collector
libostyle.so.0:_ZNK14OpenJade_DSSSL13ScrollFlowObj4copyER9Collector
libostyle.so.0:_ZNK14OpenJade_DSSSL13SetKeyArgInsn7executeERNS_2VME
libostyle.so.0:_ZNK14OpenJade_DSSSL13TailApplyInsn7executeERNS_2VME
libostyle.so.0:_ZNK14OpenJade_DSSSL13VarInheritedC3setERNS_2VMEPKNS_11VarStyleObjERNS_10FOTBuilderERPNS_5ELObjERN6OpenSP6VectorImEE
libostyle.so.0:_ZNK14OpenJade_DSSSL13VarInheritedC4makeEPNS_5ELObjERKN6OpenSP8LocationERNS_11InterpreterE
libostyle.so.0:_ZNK14OpenJade_DSSSL13VarInheritedC5valueERNS_2VMEPKNS_11VarStyleObjERN6OpenSP6VectorImEE
libostyle.so.0:_ZNK14OpenJade_DSSSL14BoolInheritedC5valueERNS_2VMEPKNS_11VarStyleObjERN6OpenSP6VectorImEE
libostyle.so.0:_ZNK14OpenJade_DSSSL14CallExpression7canEvalEb
libostyle.so.0:_ZNK14OpenJade_DSSSL14CaseExpression7canEvalEb
libostyle.so.0:_ZNK14OpenJade_DSSSL14CheckStyleInsn7executeERNS_2VME
libostyle.so.0:_ZNK14OpenJade_DSSSL14ClosureRefInsn7executeERNS_2VME
libostyle.so.0:_ZNK14OpenJade_DSSSL14InlineSpaceObj11inlineSpaceEv
libostyle.so.0:_ZNK14OpenJade_DSSSL14LabelSosofoObj15traceSubObjectsER9Collector
libostyle.so.0:_ZNK14OpenJade_DSSSL14MakeExpression17maybeStyleKeywordEPKNS_10IdentifierE
libostyle.so.0:_ZNK14OpenJade_DSSSL14MakeExpression19unknownStyleKeywordEPKNS_10IdentifierERNS_11InterpreterERKN6OpenSP8LocationE
libostyle.so.0:_ZNK14OpenJade_DSSSL14MapNodeListObj15traceSubObjectsER9Collector
libostyle.so.0:_ZNK14OpenJade_DSSSL14MapNodeListObj7Context15traceSubObjectsER9Collector
libostyle.so.0:_ZNK14OpenJade_DSSSL14MapNodeListObj7Context3setERNS_11EvalContextE
libostyle.so.0:_ZNK14OpenJade_DSSSL14ProcessContext5traceER9Collector
libostyle.so.0:_ZNK14OpenJade_DSSSL14ProcessingMode10groveRulesERKN14OpenJade_Grove7NodePtrERN6OpenSP9MessengerE
libostyle.so.0:_ZNK14OpenJade_DSSSL14ProcessingMode11ElementRule18compareSpecificityERKNS0_4RuleE
libostyle.so.0:_ZNK14OpenJade_DSSSL14ProcessingMode13findRootMatchERKN14OpenJade_Grove7NodePtrERNS_7Pattern12MatchContextERN6OpenSP9MessengerERNS0_11SpecificityE
libostyle.so.0:_ZNK14OpenJade_DSSSL14ProcessingMode16findElementMatchERKN6OpenSP6StringIjEERKN14OpenJade_Grove7NodePtrERNS_7Pattern12MatchContextERNS1_9MessengerERNS0_11SpecificityE
libostyle.so.0:_ZNK14OpenJade_DSSSL14ProcessingMode4Rule18compareSpecificityERKS1_
libostyle.so.0:_ZNK14OpenJade_DSSSL14ProcessingMode9findMatchERKN14OpenJade_Grove7NodePtrERNS_7Pattern12MatchContextERN6OpenSP9MessengerERNS0_11SpecificityE
libostyle.so.0:_ZNK14OpenJade_DSSSL14RadicalFlowObj16hasNonInheritedCEPKNS_10IdentifierE
libostyle.so.0:_ZNK14OpenJade_DSSSL14SetContentInsn7executeERNS_2VME
libostyle.so.0:_ZNK14OpenJade_DSSSL15AppendSosofoObj15traceSubObjectsER9Collector
libostyle.so.0:_ZNK14OpenJade_DSSSL15CheckSosofoInsn7executeERNS_2VME
libostyle.so.0:_ZNK14OpenJade_DSSSL15CompoundFlowObj15traceSubObjectsER9Collector
libostyle.so.0:_ZNK14OpenJade_DSSSL15CopyFlowObjInsn7executeERNS_2VME
libostyle.so.0:_ZNK14OpenJade_DSSSL15DisplaySpaceObj12displaySpaceEv
libostyle.so.0:_ZNK14OpenJade_DSSSL15FontFamilyNameC3setERNS_2VMEPKNS_11VarStyleObjERNS_10FOTBuilderERPNS_5ELObjERN6OpenSP6VectorImEE
libostyle.so.0:_ZNK14OpenJade_DSSSL15FontFamilyNameC4makeEPNS_5ELObjERKN6OpenSP8LocationERNS_11InterpreterE
libostyle.so.0:_ZNK14OpenJade_DSSSL15FractionFlowObj4copyER9Collector
libostyle.so.0:_ZNK14OpenJade_DSSSL15GridCellFlowObj16hasNonInheritedCEPKNS_10IdentifierE
libostyle.so.0:_ZNK14OpenJade_DSSSL15LabelSosofoInsn7executeERNS_2VME
libostyle.so.0:_ZNK14OpenJade_DSSSL15PairNodeListObj15traceSubObjectsER9Collector
libostyle.so.0:_ZNK14OpenJade_DSSSL15PopBindingsInsn13isPopBindingsERiRN6OpenSP8ConstPtrINS_4InsnEEE
libostyle.so.0:_ZNK14OpenJade_DSSSL15PopBindingsInsn7executeERNS_2VME
libostyle.so.0:_ZNK14OpenJade_DSSSL15SequenceFlowObj4copyER9Collector
libostyle.so.0:_ZNK14OpenJade_DSSSL15SidelineFlowObj4copyER9Collector
libostyle.so.0:_ZNK14OpenJade_DSSSL15StackSetBoxInsn7executeERNS_2VME
libostyle.so.0:_ZNK14OpenJade_DSSSL15StyleExpression17maybeStyleKeywordEPKNS_10IdentifierE
libostyle.so.0:_ZNK14OpenJade_DSSSL15StyleExpression19unknownStyleKeywordEPKNS_10IdentifierERNS_11InterpreterERKN6OpenSP8LocationE
libostyle.so.0:_ZNK14OpenJade_DSSSL15StyleExpression7canEvalEb
libostyle.so.0:_ZNK14OpenJade_DSSSL16BackgroundColorC3setERNS_2VMEPKNS_11VarStyleObjERNS_10FOTBuilderERPNS_5ELObjERN6OpenSP6VectorImEE
libostyle.so.0:_ZNK14OpenJade_DSSSL16BackgroundColorC4makeEPNS_5ELObjERKN6OpenSP8LocationERNS_11InterpreterE
libostyle.so.0:_ZNK14OpenJade_DSSSL16BackgroundColorC5traceER9Collector
libostyle.so.0:_ZNK14OpenJade_DSSSL16BackgroundColorC5valueERNS_2VMEPKNS_11VarStyleObjERN6OpenSP6VectorImEE
libostyle.so.0:_ZNK14OpenJade_DSSSL16CharacterFlowObj16hasNonInheritedCEPKNS_10IdentifierE
libostyle.so.0:_ZNK14OpenJade_DSSSL16CharacterFlowObj4copyER9Collector
libostyle.so.0:_ZNK14OpenJade_DSSSL16ELObjDynamicRoot5traceER9Collector
libostyle.so.0:_ZNK14OpenJade_DSSSL16ExtensionFlowObj16hasNonInheritedCEPKNS_10IdentifierE
libostyle.so.0:_ZNK14OpenJade_DSSSL16ExtensionFlowObj4copyER9Collector
libostyle.so.0:_ZNK14OpenJade_DSSSL16FunctionCallInsn7executeERNS_2VME
libostyle.so.0:_ZNK14OpenJade_DSSSL16GlyphSubstTableC3setERNS_2VMEPKNS_11VarStyleObjERNS_10FOTBuilderERPNS_5ELObjERN6OpenSP6VectorImEE
libostyle.so.0:_ZNK14OpenJade_DSSSL16GlyphSubstTableC4makeEPNS_5ELObjERKN6OpenSP8LocationERNS_11InterpreterE
libostyle.so.0:_ZNK14OpenJade_DSSSL16GlyphSubstTableC5valueERNS_2VMEPKNS_11VarStyleObjERN6OpenSP6VectorImEE
libostyle.so.0:_ZNK14OpenJade_DSSSL16LambdaExpression7canEvalEb
libostyle.so.0:_ZNK14OpenJade_DSSSL16LengthInheritedC5valueERNS_2VMEPKNS_11VarStyleObjERN6OpenSP6VectorImEE
libostyle.so.0:_ZNK14OpenJade_DSSSL16LetrecExpression7canEvalEb
libostyle.so.0:_ZNK14OpenJade_DSSSL16LineFieldFlowObj16hasNonInheritedCEPKNS_10IdentifierE
libostyle.so.0:_ZNK14OpenJade_DSSSL16LineFieldFlowObj4copyER9Collector
libostyle.so.0:_ZNK14OpenJade_DSSSL16ListToVectorInsn7executeERNS_2VME
libostyle.so.0:_ZNK14OpenJade_DSSSL16LiteralSosofoObj15traceSubObjectsER9Collector
libostyle.so.0:_ZNK14OpenJade_DSSSL16MultiModeFlowObj16hasNonInheritedCEPKNS_10IdentifierE
libostyle.so.0:_ZNK14OpenJade_DSSSL16MultiModeFlowObj4copyER9Collector
libostyle.so.0:_ZNK14OpenJade_DSSSL16ParagraphFlowObj16hasNonInheritedCEPKNS_10IdentifierE
libostyle.so.0:_ZNK14OpenJade_DSSSL16ParagraphFlowObj4copyER9Collector
libostyle.so.0:_ZNK14OpenJade_DSSSL16SetImmediateInsn7executeERNS_2VME
libostyle.so.0:_ZNK14OpenJade_DSSSL16SosofoAppendInsn7executeERNS_2VME
libostyle.so.0:_ZNK14OpenJade_DSSSL16StringInheritedC5valueERNS_2VMEPKNS_11VarStyleObjERN6OpenSP6VectorImEE
libostyle.so.0:_ZNK14OpenJade_DSSSL16SymbolInheritedC5valueERNS_2VMEPKNS_11VarStyleObjERN6OpenSP6VectorImEE
libostyle.so.0:_ZNK14OpenJade_DSSSL17CIEAColorSpaceObj15traceSubObjectsER9Collector
libostyle.so.0:_ZNK14OpenJade_DSSSL17ClosureSetBoxInsn7executeERNS_2VME
libostyle.so.0:_ZNK14OpenJade_DSSSL17DeviceRGBColorObj13setBackgroundERNS_10FOTBuilderE
libostyle.so.0:_ZNK14OpenJade_DSSSL17DeviceRGBColorObj3setERNS_10FOTBuilderE
libostyle.so.0:_ZNK14OpenJade_DSSSL17IntegerInheritedC5valueERNS_2VMEPKNS_11VarStyleObjERN6OpenSP6VectorImEE
libostyle.so.0:_ZNK14OpenJade_DSSSL17Letter2InheritedC5valueERNS_2VMEPKNS_11VarStyleObjERN6OpenSP6VectorImEE
libostyle.so.0:_ZNK14OpenJade_DSSSL17MarginaliaFlowObj4copyER9Collector
libostyle.so.0:_ZNK14OpenJade_DSSSL17PageTypeSosofoObj15traceSubObjectsER9Collector
libostyle.so.0:_ZNK14OpenJade_DSSSL17PrimitiveCallInsn7executeERNS_2VME
libostyle.so.0:_ZNK14OpenJade_DSSSL18CondFailExpression7canEvalEb
libostyle.so.0:_ZNK14OpenJade_DSSSL18ConstantExpression7canEvalEb
libostyle.so.0:_ZNK14OpenJade_DSSSL18ConstantExpression7keywordEv
libostyle.so.0:_ZNK14OpenJade_DSSSL18OverriddenStyleObj10appendIterERNS_12StyleObjIterE
libostyle.so.0:_ZNK14OpenJade_DSSSL18OverriddenStyleObj15traceSubObjectsER9Collector
libostyle.so.0:_ZNK14OpenJade_DSSSL18PublicIdInheritedC5valueERNS_2VMEPKNS_11VarStyleObjERN6OpenSP6VectorImEE
libostyle.so.0:_ZNK14OpenJade_DSSSL18ReverseNodeListObj15traceSubObjectsER9Collector
libostyle.so.0:_ZNK14OpenJade_DSSSL18SequenceExpression7canEvalEb
libostyle.so.0:_ZNK14OpenJade_DSSSL18VariableExpression7canEvalEb
libostyle.so.0:_ZNK14OpenJade_DSSSL18WithModeExpression7canEvalEb
libostyle.so.0:_ZNK14OpenJade_DSSSL19CIEABCColorSpaceObj15traceSubObjectsER9Collector
libostyle.so.0:_ZNK14OpenJade_DSSSL19ContentMapSosofoObj15traceSubObjectsER9Collector
libostyle.so.0:_ZNK14OpenJade_DSSSL19DisplayGroupFlowObj16hasNonInheritedCEPKNS_10IdentifierE
libostyle.so.0:_ZNK14OpenJade_DSSSL19DisplayGroupFlowObj4copyER9Collector
libostyle.so.0:_ZNK14OpenJade_DSSSL19SetImplicitCharInsn7executeERNS_2VME
libostyle.so.0:_ZNK14OpenJade_DSSSL20AssignmentExpression7canEvalEb
libostyle.so.0:_ZNK14OpenJade_DSSSL20ContentMapSosofoInsn7executeERNS_2VME
libostyle.so.0:_ZNK14OpenJade_DSSSL20FunctionTailCallInsn7executeERNS_2VME
libostyle.so.0:_ZNK14OpenJade_DSSSL20LengthSpecInheritedC5valueERNS_2VMEPKNS_11VarStyleObjERN6OpenSP6VectorImEE
libostyle.so.0:_ZNK14OpenJade_DSSSL20QuasiquoteExpression7canEvalEb
libostyle.so.0:_ZNK14OpenJade_DSSSL20SetNonInheritedCInsn7executeERNS_2VME
libostyle.so.0:_ZNK14OpenJade_DSSSL21AlignmentPointFlowObj4copyER9Collector
libostyle.so.0:_ZNK14OpenJade_DSSSL21DssslSpecEventHandler18DeclarationElement4typeEv
libostyle.so.0:_ZNK14OpenJade_DSSSL21GenericBoolInheritedC3setERNS_2VMEPKNS_11VarStyleObjERNS_10FOTBuilderERPNS_5ELObjERN6OpenSP6VectorImEE
libostyle.so.0:_ZNK14OpenJade_DSSSL21GenericBoolInheritedC4makeEPNS_5ELObjERKN6OpenSP8LocationERNS_11InterpreterE
libostyle.so.0:_ZNK14OpenJade_DSSSL21ParagraphBreakFlowObj16hasNonInheritedCEPKNS_10IdentifierE
libostyle.so.0:_ZNK14OpenJade_DSSSL21ParagraphBreakFlowObj4copyER9Collector
libostyle.so.0:_ZNK14OpenJade_DSSSL21ResolveQuantitiesInsn7executeERNS_2VME
libostyle.so.0:_ZNK14OpenJade_DSSSL21SetDefaultContentInsn7executeERNS_2VME
libostyle.so.0:_ZNK14OpenJade_DSSSL21TextInputSourceOrigin11defLocationEjRPKN6OpenSP6OriginERj
libostyle.so.0:_ZNK14OpenJade_DSSSL21TextInputSourceOrigin4copyEv
libostyle.so.0:_ZNK14OpenJade_DSSSL21TextInputSourceOrigin6parentEv
libostyle.so.0:_ZNK14OpenJade_DSSSL22ExternalGraphicFlowObj16hasNonInheritedCEPKNS_10IdentifierE
libostyle.so.0:_ZNK14OpenJade_DSSSL22ExternalGraphicFlowObj4copyER9Collector
libostyle.so.0:_ZNK14OpenJade_DSSSL22MakeDefaultContentInsn7executeERNS_2VME
libostyle.so.0:_ZNK14OpenJade_DSSSL22MaybeOverrideStyleInsn7executeERNS_2VME
libostyle.so.0:_ZNK14OpenJade_DSSSL23DiscardLabeledSosofoObj15traceSubObjectsER9Collector
libostyle.so.0:_ZNK14OpenJade_DSSSL23ExtensionBoolInheritedC3setERNS_2VMEPKNS_11VarStyleObjERNS_10FOTBuilderERPNS_5ELObjERN6OpenSP6VectorImEE
libostyle.so.0:_ZNK14OpenJade_DSSSL23ExtensionBoolInheritedC4makeEPNS_5ELObjERKN6OpenSP8LocationERNS_11InterpreterE
libostyle.so.0:_ZNK14OpenJade_DSSSL23GenericLengthInheritedC3setERNS_2VMEPKNS_11VarStyleObjERNS_10FOTBuilderERPNS_5ELObjERN6OpenSP6VectorImEE
libostyle.so.0:_ZNK14OpenJade_DSSSL23GenericLengthInheritedC4makeEPNS_5ELObjERKN6OpenSP8LocationERNS_11InterpreterE
libostyle.so.0:_ZNK14OpenJade_DSSSL23GenericSymbolInheritedC3setERNS_2VMEPKNS_11VarStyleObjERNS_10FOTBuilderERPNS_5ELObjERN6OpenSP6VectorImEE
libostyle.so.0:_ZNK14OpenJade_DSSSL23GenericSymbolInheritedC4makeEPNS_5ELObjERKN6OpenSP8LocationERNS_11InterpreterE
libostyle.so.0:_ZNK14OpenJade_DSSSL23OptLengthSpecInheritedC5valueERNS_2VMEPKNS_11VarStyleObjERN6OpenSP6VectorImEE
libostyle.so.0:_ZNK14OpenJade_DSSSL24CompoundExtensionFlowObj16hasNonInheritedCEPKNS_10IdentifierE
libostyle.so.0:_ZNK14OpenJade_DSSSL24CompoundExtensionFlowObj4copyER9Collector
libostyle.so.0:_ZNK14OpenJade_DSSSL24GenericIntegerInheritedC3setERNS_2VMEPKNS_11VarStyleObjERNS_10FOTBuilderERPNS_5ELObjERN6OpenSP6VectorImEE
libostyle.so.0:_ZNK14OpenJade_DSSSL24GenericIntegerInheritedC4makeEPNS_5ELObjERKN6OpenSP8LocationERNS_11InterpreterE
libostyle.so.0:_ZNK14OpenJade_DSSSL24GenericLetter2InheritedC3setERNS_2VMEPKNS_11VarStyleObjERNS_10FOTBuilderERPNS_5ELObjERN6OpenSP6VectorImEE
libostyle.so.0:_ZNK14OpenJade_DSSSL24GenericLetter2InheritedC4makeEPNS_5ELObjERKN6OpenSP8LocationERNS_11InterpreterE
libostyle.so.0:_ZNK14OpenJade_DSSSL24ProcessNodeListSosofoObj15traceSubObjectsER9Collector
libostyle.so.0:_ZNK14OpenJade_DSSSL24SelectByClassNodeListObj15traceSubObjectsER9Collector
libostyle.so.0:_ZNK14OpenJade_DSSSL25ExtensionLengthInheritedC3setERNS_2VMEPKNS_11VarStyleObjERNS_10FOTBuilderERPNS_5ELObjERN6OpenSP6VectorImEE
libostyle.so.0:_ZNK14OpenJade_DSSSL25ExtensionLengthInheritedC4makeEPNS_5ELObjERKN6OpenSP8LocationERNS_11InterpreterE
libostyle.so.0:_ZNK14OpenJade_DSSSL25ExtensionStringInheritedC3setERNS_2VMEPKNS_11VarStyleObjERNS_10FOTBuilderERPNS_5ELObjERN6OpenSP6VectorImEE
libostyle.so.0:_ZNK14OpenJade_DSSSL25ExtensionStringInheritedC4makeEPNS_5ELObjERKN6OpenSP8LocationERNS_11InterpreterE
libostyle.so.0:_ZNK14OpenJade_DSSSL25GenericPublicIdInheritedC3setERNS_2VMEPKNS_11VarStyleObjERNS_10FOTBuilderERPNS_5ELObjERN6OpenSP6VectorImEE
libostyle.so.0:_ZNK14OpenJade_DSSSL25GenericPublicIdInheritedC4makeEPNS_5ELObjERKN6OpenSP8LocationERNS_11InterpreterE
libostyle.so.0:_ZNK14OpenJade_DSSSL25SelectElementsNodeListObj15traceSubObjectsER9Collector
libostyle.so.0:_ZNK14OpenJade_DSSSL25SimplePageSequenceFlowObj15traceSubObjectsER9Collector
libostyle.so.0:_ZNK14OpenJade_DSSSL25SimplePageSequenceFlowObj16hasNonInheritedCEPKNS_10IdentifierE
libostyle.so.0:_ZNK14OpenJade_DSSSL25SimplePageSequenceFlowObj4copyER9Collector
libostyle.so.0:_ZNK14OpenJade_DSSSL26ExtensionIntegerInheritedC3setERNS_2VMEPKNS_11VarStyleObjERNS_10FOTBuilderERPNS_5ELObjERN6OpenSP6VectorImEE
libostyle.so.0:_ZNK14OpenJade_DSSSL26ExtensionIntegerInheritedC4makeEPNS_5ELObjERKN6OpenSP8LocationERNS_11InterpreterE
libostyle.so.0:_ZNK14OpenJade_DSSSL26ResolvedConstantExpression13constantValueEv
libostyle.so.0:_ZNK14OpenJade_DSSSL26ResolvedConstantExpression7canEvalEb
libostyle.so.0:_ZNK14OpenJade_DSSSL26SetNonInheritedCsSosofoObj15traceSubObjectsER9Collector
libostyle.so.0:_ZNK14OpenJade_DSSSL26SetPseudoNonInheritedCInsn7executeERNS_2VME
libostyle.so.0:_ZNK14OpenJade_DSSSL27GenericLengthSpecInheritedC3setERNS_2VMEPKNS_11VarStyleObjERNS_10FOTBuilderERPNS_5ELObjERN6OpenSP6VectorImEE
libostyle.so.0:_ZNK14OpenJade_DSSSL27GenericLengthSpecInheritedC4makeEPNS_5ELObjERKN6OpenSP8LocationERNS_11InterpreterE
libostyle.so.0:_ZNK14OpenJade_DSSSL27SetNonInheritedCsSosofoInsn7executeERNS_2VME
libostyle.so.0:_ZNK14OpenJade_DSSSL28GenericInlineSpaceInheritedC3setERNS_2VMEPKNS_11VarStyleObjERNS_10FOTBuilderERPNS_5ELObjERN6OpenSP6VectorImEE
libostyle.so.0:_ZNK14OpenJade_DSSSL28GenericInlineSpaceInheritedC4makeEPNS_5ELObjERKN6OpenSP8LocationERNS_11InterpreterE
libostyle.so.0:_ZNK14OpenJade_DSSSL28GenericInlineSpaceInheritedC5valueERNS_2VMEPKNS_11VarStyleObjERN6OpenSP6VectorImEE
libostyle.so.0:_ZNK14OpenJade_DSSSL29GenericMaybeIntegerInheritedC4makeEPNS_5ELObjERKN6OpenSP8LocationERNS_11InterpreterE
libostyle.so.0:_ZNK14OpenJade_DSSSL29GenericMaybeIntegerInheritedC5valueERNS_2VMEPKNS_11VarStyleObjERN6OpenSP6VectorImEE
libostyle.so.0:_ZNK14OpenJade_DSSSL2VM5traceER9Collector
libostyle.so.0:_ZNK14OpenJade_DSSSL30GenericOptLengthSpecInheritedC3setERNS_2VMEPKNS_11VarStyleObjERNS_10FOTBuilderERPNS_5ELObjERN6OpenSP6VectorImEE
libostyle.so.0:_ZNK14OpenJade_DSSSL30GenericOptLengthSpecInheritedC4makeEPNS_5ELObjERKN6OpenSP8LocationERNS_11InterpreterE
libostyle.so.0:_ZNK14OpenJade_DSSSL31GenericOptInlineSpaceInheritedC3setERNS_2VMEPKNS_11VarStyleObjERNS_10FOTBuilderERPNS_5ELObjERN6OpenSP6VectorImEE
libostyle.so.0:_ZNK14OpenJade_DSSSL31GenericOptInlineSpaceInheritedC4makeEPNS_5ELObjERKN6OpenSP8LocationERNS_11InterpreterE
libostyle.so.0:_ZNK14OpenJade_DSSSL31GenericOptInlineSpaceInheritedC5valueERNS_2VMEPKNS_11VarStyleObjERN6OpenSP6VectorImEE
libostyle.so.0:_ZNK14OpenJade_DSSSL4Insn13isPopBindingsERiRN6OpenSP8ConstPtrIS0_EE
libostyle.so.0:_ZNK14OpenJade_DSSSL4Insn8isReturnERi
libostyle.so.0:_ZNK14OpenJade_DSSSL4Unit7definedERjRN6OpenSP8LocationE
libostyle.so.0:_ZNK14OpenJade_DSSSL5ELObj10lengthSpecEv
libostyle.so.0:_ZNK14OpenJade_DSSSL5ELObj5isNilEv
libostyle.so.0:_ZNK14OpenJade_DSSSL5ELObj6isListEv
libostyle.so.0:_ZNK14OpenJade_DSSSL5ELObj6isTrueEv
libostyle.so.0:_ZNK14OpenJade_DSSSL5ELObj7glyphIdEv
libostyle.so.0:_ZNK14OpenJade_DSSSL5RuleC4makeEPNS_5ELObjERKN6OpenSP8LocationERNS_11InterpreterE
libostyle.so.0:_ZNK14OpenJade_DSSSL6BoxObj15traceSubObjectsER9Collector
libostyle.so.0:_ZNK14OpenJade_DSSSL6ColorC3setERNS_2VMEPKNS_11VarStyleObjERNS_10FOTBuilderERPNS_5ELObjERN6OpenSP6VectorImEE
libostyle.so.0:_ZNK14OpenJade_DSSSL6ColorC4makeEPNS_5ELObjERKN6OpenSP8LocationERNS_11InterpreterE
libostyle.so.0:_ZNK14OpenJade_DSSSL6ColorC5traceER9Collector
libostyle.so.0:_ZNK14OpenJade_DSSSL6ColorC5valueERNS_2VMEPKNS_11VarStyleObjERN6OpenSP6VectorImEE
libostyle.so.0:_ZNK14OpenJade_DSSSL6NilObj5isNilEv
libostyle.so.0:_ZNK14OpenJade_DSSSL6NilObj6isListEv
libostyle.so.0:_ZNK14OpenJade_DSSSL6OrInsn7executeERNS_2VME
libostyle.so.0:_ZNK14OpenJade_DSSSL7AndInsn7executeERNS_2VME
libostyle.so.0:_ZNK14OpenJade_DSSSL7BorderC4makeEPNS_5ELObjERKN6OpenSP8LocationERNS_11InterpreterE
libostyle.so.0:_ZNK14OpenJade_DSSSL7BoxInsn7executeERNS_2VME
libostyle.so.0:_ZNK14OpenJade_DSSSL7CharObj7displayERNS_11InterpreterERN6OpenSP16OutputCharStreamE
libostyle.so.0:_ZNK14OpenJade_DSSSL7FlowObj15traceSubObjectsER9Collector
libostyle.so.0:_ZNK14OpenJade_DSSSL7FlowObj16hasNonInheritedCEPKNS_10IdentifierE
libostyle.so.0:_ZNK14OpenJade_DSSSL7FlowObj22hasPseudoNonInheritedCEPKNS_10IdentifierE
libostyle.so.0:_ZNK14OpenJade_DSSSL7LangObj13areEquivalentERKN6OpenSP6StringIjEES5_j
libostyle.so.0:_ZNK14OpenJade_DSSSL7LangObj13isLessOrEqualERKN6OpenSP6StringIjEES5_
libostyle.so.0:_ZNK14OpenJade_DSSSL7LangObj15asCollatingEltsERKN6OpenSP6StringIjEE
libostyle.so.0:_ZNK14OpenJade_DSSSL7LangObj6isLessERKN6OpenSP6StringIjEES5_
libostyle.so.0:_ZNK14OpenJade_DSSSL7LangObj6levelsEv
libostyle.so.0:_ZNK14OpenJade_DSSSL7LangObj7atLevelERKN6OpenSP6StringIjEEj
libostyle.so.0:_ZNK14OpenJade_DSSSL7LangObj7compareERKN6OpenSP6StringIjEES5_j
libostyle.so.0:_ZNK14OpenJade_DSSSL7LangObj7toLowerEj
libostyle.so.0:_ZNK14OpenJade_DSSSL7LangObj7toUpperEj
libostyle.so.0:_ZNK14OpenJade_DSSSL7PairObj15traceSubObjectsER9Collector
libostyle.so.0:_ZNK14OpenJade_DSSSL7PairObj6isListEv
libostyle.so.0:_ZNK14OpenJade_DSSSL7Pattern11IdQualifier21contributeSpecificityEPi
libostyle.so.0:_ZNK14OpenJade_DSSSL7Pattern11IdQualifier9satisfiesERKN14OpenJade_Grove7NodePtrERNS0_12MatchContextE
libostyle.so.0:_ZNK14OpenJade_DSSSL7Pattern13OnlyQualifier21contributeSpecificityEPi
libostyle.so.0:_ZNK14OpenJade_DSSSL7Pattern14ClassQualifier21contributeSpecificityEPi
libostyle.so.0:_ZNK14OpenJade_DSSSL7Pattern14ClassQualifier9satisfiesERKN14OpenJade_Grove7NodePtrERNS0_12MatchContextE
libostyle.so.0:_ZNK14OpenJade_DSSSL7Pattern16VacuousQualifier7vacuousEv
libostyle.so.0:_ZNK14OpenJade_DSSSL7Pattern17ChildrenQualifier21contributeSpecificityEPi
libostyle.so.0:_ZNK14OpenJade_DSSSL7Pattern17ChildrenQualifier9satisfiesERKN14OpenJade_Grove7NodePtrERNS0_12MatchContextE
libostyle.so.0:_ZNK14OpenJade_DSSSL7Pattern17PositionQualifier21contributeSpecificityEPi
libostyle.so.0:_ZNK14OpenJade_DSSSL7Pattern17PriorityQualifier21contributeSpecificityEPi
libostyle.so.0:_ZNK14OpenJade_DSSSL7Pattern17PriorityQualifier9satisfiesERKN14OpenJade_Grove7NodePtrERNS0_12MatchContextE
libostyle.so.0:_ZNK14OpenJade_DSSSL7Pattern18AttributeQualifier21contributeSpecificityEPi
libostyle.so.0:_ZNK14OpenJade_DSSSL7Pattern18AttributeQualifier9satisfiesERKN14OpenJade_Grove7NodePtrERNS0_12MatchContextE
libostyle.so.0:_ZNK14OpenJade_DSSSL7Pattern18LastOfAnyQualifier9satisfiesERKN14OpenJade_Grove7NodePtrERNS0_12MatchContextE
libostyle.so.0:_ZNK14OpenJade_DSSSL7Pattern18OnlyOfAnyQualifier9satisfiesERKN14OpenJade_Grove7NodePtrERNS0_12MatchContextE
libostyle.so.0:_ZNK14OpenJade_DSSSL7Pattern18computeSpecificityEPi
libostyle.so.0:_ZNK14OpenJade_DSSSL7Pattern19FirstOfAnyQualifier9satisfiesERKN14OpenJade_Grove7NodePtrERNS0_12MatchContextE
libostyle.so.0:_ZNK14OpenJade_DSSSL7Pattern19ImportanceQualifier21contributeSpecificityEPi
libostyle.so.0:_ZNK14OpenJade_DSSSL7Pattern19ImportanceQualifier9satisfiesERKN14OpenJade_Grove7NodePtrERNS0_12MatchContextE
libostyle.so.0:_ZNK14OpenJade_DSSSL7Pattern19LastOfTypeQualifier9satisfiesERKN14OpenJade_Grove7NodePtrERNS0_12MatchContextE
libostyle.so.0:_ZNK14OpenJade_DSSSL7Pattern19OnlyOfTypeQualifier9satisfiesERKN14OpenJade_Grove7NodePtrERNS0_12MatchContextE
libostyle.so.0:_ZNK14OpenJade_DSSSL7Pattern20FirstOfTypeQualifier9satisfiesERKN14OpenJade_Grove7NodePtrERNS0_12MatchContextE
libostyle.so.0:_ZNK14OpenJade_DSSSL7Pattern26AttributeHasValueQualifier21contributeSpecificityEPi
libostyle.so.0:_ZNK14OpenJade_DSSSL7Pattern26AttributeHasValueQualifier9satisfiesERKN14OpenJade_Grove7NodePtrERNS0_12MatchContextE
libostyle.so.0:_ZNK14OpenJade_DSSSL7Pattern30AttributeMissingValueQualifier21contributeSpecificityEPi
libostyle.so.0:_ZNK14OpenJade_DSSSL7Pattern30AttributeMissingValueQualifier9satisfiesERKN14OpenJade_Grove7NodePtrERNS0_12MatchContextE
libostyle.so.0:_ZNK14OpenJade_DSSSL7Pattern7Element21contributeSpecificityEPi
libostyle.so.0:_ZNK14OpenJade_DSSSL7Pattern7Element7matchesERKN14OpenJade_Grove7NodePtrERNS0_12MatchContextE
libostyle.so.0:_ZNK14OpenJade_DSSSL7Pattern7Element7trivialEv
libostyle.so.0:_ZNK14OpenJade_DSSSL7Pattern9Qualifier7vacuousEv
libostyle.so.0:_ZNK14OpenJade_DSSSL7PopInsn7executeERNS_2VME
libostyle.so.0:_ZNK14OpenJade_DSSSL8CaseInsn7executeERNS_2VME
libostyle.so.0:_ZNK14OpenJade_DSSSL8ConsInsn7executeERNS_2VME
libostyle.so.0:_ZNK14OpenJade_DSSSL8FalseObj6isTrueEv
libostyle.so.0:_ZNK14OpenJade_DSSSL8IgnoredC3setERNS_2VMEPKNS_11VarStyleObjERNS_10FOTBuilderERPNS_5ELObjERN6OpenSP6VectorImEE
libostyle.so.0:_ZNK14OpenJade_DSSSL8IgnoredC4makeEPNS_5ELObjERKN6OpenSP8LocationERNS_11InterpreterE
libostyle.so.0:_ZNK14OpenJade_DSSSL8IgnoredC5traceER9Collector
libostyle.so.0:_ZNK14OpenJade_DSSSL8IgnoredC5valueERNS_2VMEPKNS_11VarStyleObjERN6OpenSP6VectorImEE
libostyle.so.0:_ZNK14OpenJade_DSSSL8TestInsn7executeERNS_2VME
libostyle.so.0:_ZNK14OpenJade_DSSSL9ApplyInsn7executeERNS_2VME
libostyle.so.0:_ZNK14OpenJade_DSSSL9ErrorInsn7executeERNS_2VME
libostyle.so.0:_ZNK14OpenJade_DSSSL9FontSizeC3setERNS_2VMEPKNS_11VarStyleObjERNS_10FOTBuilderERPNS_5ELObjERN6OpenSP6VectorImEE
libostyle.so.0:_ZNK14OpenJade_DSSSL9FontSizeC4makeEPNS_5ELObjERKN6OpenSP8LocationERNS_11InterpreterE
libostyle.so.0:_ZNK14OpenJade_DSSSL9SymbolObj15traceSubObjectsER9Collector
libostyle.so.0:_ZNK14OpenJade_DSSSL9UnboxInsn7executeERNS_2VME
libostyle.so.0:_ZNK14OpenJade_DSSSL9VectorObj15traceSubObjectsER9Collector
libostyle.so.0:_ZThn144_NK14OpenJade_DSSSL11Interpreter8sdataMapEN14OpenJade_Grove11GroveStringES2_Rj
libostyle.so.0:_ZThn16_N14OpenJade_DSSSL14SaveFOTBuilder10charactersEPKjm
libostyle.so.0:_ZThn16_N14OpenJade_DSSSL14SaveFOTBuilder10endRadicalEv
libostyle.so.0:_ZThn16_N14OpenJade_DSSSL14SaveFOTBuilder10pageNumberEv
libostyle.so.0:_ZThn16_N14OpenJade_DSSSL14SaveFOTBuilder10setBoxTypeENS_10FOTBuilder6SymbolE
libostyle.so.0:_ZThn16_N14OpenJade_DSSSL14SaveFOTBuilder10setCountryEj
libostyle.so.0:_ZThn16_N14OpenJade_DSSSL14SaveFOTBuilder10setLineCapENS_10FOTBuilder6SymbolE
libostyle.so.0:_ZThn16_N14OpenJade_DSSSL14SaveFOTBuilder10setLineSepEl
libostyle.so.0:_ZThn16_N14OpenJade_DSSSL14SaveFOTBuilder10startFenceERPNS_10FOTBuilderES3_
libostyle.so.0:_ZThn16_N14OpenJade_DSSSL14SaveFOTBuilder10startScoreENS_10FOTBuilder6SymbolE
libostyle.so.0:_ZThn16_N14OpenJade_DSSSL14SaveFOTBuilder10startScoreERKNS_10FOTBuilder10LengthSpecE
libostyle.so.0:_ZThn16_N14OpenJade_DSSSL14SaveFOTBuilder10startScoreEj
libostyle.so.0:_ZThn16_N14OpenJade_DSSSL14SaveFOTBuilder10startTableERKNS_10FOTBuilder8TableNICE
libostyle.so.0:_ZThn16_N14OpenJade_DSSSL14SaveFOTBuilder11endFractionEv
libostyle.so.0:_ZThn16_N14OpenJade_DSSSL14SaveFOTBuilder11endGridCellEv
libostyle.so.0:_ZThn16_N14OpenJade_DSSSL14SaveFOTBuilder11endSequenceEv
libostyle.so.0:_ZThn16_N14OpenJade_DSSSL14SaveFOTBuilder11endSidelineEv
libostyle.so.0:_ZThn16_N14OpenJade_DSSSL14SaveFOTBuilder11endTableRowEv
libostyle.so.0:_ZThn16_N14OpenJade_DSSSL14SaveFOTBuilder11fractionBarEv
libostyle.so.0:_ZThn16_N14OpenJade_DSSSL14SaveFOTBuilder11setFontNameEPKc
libostyle.so.0:_ZThn16_N14OpenJade_DSSSL14SaveFOTBuilder11setFontSizeEl
libostyle.so.0:_ZThn16_N14OpenJade_DSSSL14SaveFOTBuilder11setKernModeENS_10FOTBuilder6SymbolE
libostyle.so.0:_ZThn16_N14OpenJade_DSSSL14SaveFOTBuilder11setLanguageEj
libostyle.so.0:_ZThn16_N14OpenJade_DSSSL14SaveFOTBuilder11setLigatureEb
libostyle.so.0:_ZThn16_N14OpenJade_DSSSL14SaveFOTBuilder11setLineJoinENS_10FOTBuilder6SymbolE
libostyle.so.0:_ZThn16_N14OpenJade_DSSSL14SaveFOTBuilder11setQuaddingENS_10FOTBuilder6SymbolE
libostyle.so.0:_ZThn16_N14OpenJade_DSSSL14SaveFOTBuilder11setSpanWeakEb
libostyle.so.0:_ZThn16_N14OpenJade_DSSSL14SaveFOTBuilder11startLeaderERKNS_10FOTBuilder9LeaderNICE
libostyle.so.0:_ZThn16_N14OpenJade_DSSSL14SaveFOTBuilder11startScriptERPNS_10FOTBuilderES3_S3_S3_S3_S3_
libostyle.so.0:_ZThn16_N14OpenJade_DSSSL14SaveFOTBuilder11startScrollEv
libostyle.so.0:_ZThn16_N14OpenJade_DSSSL14SaveFOTBuilder11startUnmathEv
libostyle.so.0:_ZThn16_N14OpenJade_DSSSL14SaveFOTBuilder11tableColumnERKNS_10FOTBuilder14TableColumnNICE
libostyle.so.0:_ZThn16_N14OpenJade_DSSSL14SaveFOTBuilder12endExtensionERKNS_10FOTBuilder24CompoundExtensionFlowObjE
libostyle.so.0:_ZThn16_N14OpenJade_DSSSL14SaveFOTBuilder12endLineFieldEv
libostyle.so.0:_ZThn16_N14OpenJade_DSSSL14SaveFOTBuilder12endMultiModeEv
libostyle.so.0:_ZThn16_N14OpenJade_DSSSL14SaveFOTBuilder12endParagraphEv
libostyle.so.0:_ZThn16_N14OpenJade_DSSSL14SaveFOTBuilder12endSubscriptEv
libostyle.so.0:_ZThn16_N14OpenJade_DSSSL14SaveFOTBuilder12endTableCellEv
libostyle.so.0:_ZThn16_N14OpenJade_DSSSL14SaveFOTBuilder12endTablePartEv
libostyle.so.0:_ZThn16_N14OpenJade_DSSSL14SaveFOTBuilder12extensionSetEMNS_10FOTBuilderEFvRKN6OpenSP6StringIjEEES6_
libostyle.so.0:_ZThn16_N14OpenJade_DSSSL14SaveFOTBuilder12extensionSetEMNS_10FOTBuilderEFvbEb
libostyle.so.0:_ZThn16_N14OpenJade_DSSSL14SaveFOTBuilder12extensionSetEMNS_10FOTBuilderEFvlEl
libostyle.so.0:_ZThn16_N14OpenJade_DSSSL14SaveFOTBuilder12setEndIndentERKNS_10FOTBuilder10LengthSpecE
libostyle.so.0:_ZThn16_N14OpenJade_DSSSL14SaveFOTBuilder12setEndMarginERKNS_10FOTBuilder10LengthSpecE
libostyle.so.0:_ZThn16_N14OpenJade_DSSSL14SaveFOTBuilder12setHyphenateEb
libostyle.so.0:_ZThn16_N14OpenJade_DSSSL14SaveFOTBuilder12setPageWidthEl
libostyle.so.0:_ZThn16_N14OpenJade_DSSSL14SaveFOTBuilder12setTopMarginEl
libostyle.so.0:_ZThn16_N14OpenJade_DSSSL14SaveFOTBuilder12startRadicalERPNS_10FOTBuilderE
libostyle.so.0:_ZThn16_N14OpenJade_DSSSL14SaveFOTBuilder13endMarginaliaEv
libostyle.so.0:_ZThn16_N14OpenJade_DSSSL14SaveFOTBuilder13setBoxOpenEndEb
libostyle.so.0:_ZThn16_N14OpenJade_DSSSL14SaveFOTBuilder13setExpandTabsEl
libostyle.so.0:_ZThn16_N14OpenJade_DSSSL14SaveFOTBuilder13setFieldAlignENS_10FOTBuilder6SymbolE
libostyle.so.0:_ZThn16_N14OpenJade_DSSSL14SaveFOTBuilder13setFieldWidthERKNS_10FOTBuilder10LengthSpecE
libostyle.so.0:_ZThn16_N14OpenJade_DSSSL14SaveFOTBuilder13setFontWeightENS_10FOTBuilder6SymbolE
libostyle.so.0:_ZThn16_N14OpenJade_DSSSL14SaveFOTBuilder13setLeftMarginEl
libostyle.so.0:_ZThn16_N14OpenJade_DSSSL14SaveFOTBuilder13setLineRepeatEl
libostyle.so.0:_ZThn16_N14OpenJade_DSSSL14SaveFOTBuilder13setMinLeadingERKNS_10FOTBuilder13OptLengthSpecE
libostyle.so.0:_ZThn16_N14OpenJade_DSSSL14SaveFOTBuilder13setPageHeightEl
libostyle.so.0:_ZThn16_N14OpenJade_DSSSL14SaveFOTBuilder13setWidowCountEl
libostyle.so.0:_ZThn16_N14OpenJade_DSSSL14SaveFOTBuilder13startFractionERPNS_10FOTBuilderES3_
libostyle.so.0:_ZThn16_N14OpenJade_DSSSL14SaveFOTBuilder13startGridCellERKNS_10FOTBuilder11GridCellNICE
libostyle.so.0:_ZThn16_N14OpenJade_DSSSL14SaveFOTBuilder13startSequenceEv
libostyle.so.0:_ZThn16_N14OpenJade_DSSSL14SaveFOTBuilder13startSidelineEv
libostyle.so.0:_ZThn16_N14OpenJade_DSSSL14SaveFOTBuilder13startTableRowEv
libostyle.so.0:_ZThn16_N14OpenJade_DSSSL14SaveFOTBuilder14alignmentPointEv
libostyle.so.0:_ZThn16_N14OpenJade_DSSSL14SaveFOTBuilder14endSuperscriptEv
libostyle.so.0:_ZThn16_N14OpenJade_DSSSL14SaveFOTBuilder14paragraphBreakERKNS_10FOTBuilder10DisplayNICE
libostyle.so.0:_ZThn16_N14OpenJade_DSSSL14SaveFOTBuilder14radicalRadicalERKNS_10FOTBuilder12CharacterNICE
libostyle.so.0:_ZThn16_N14OpenJade_DSSSL14SaveFOTBuilder14setAlignLeaderEb
libostyle.so.0:_ZThn16_N14OpenJade_DSSSL14SaveFOTBuilder14setCellCrossedENS_10FOTBuilder6SymbolE
libostyle.so.0:_ZThn16_N14OpenJade_DSSSL14SaveFOTBuilder14setFontPostureENS_10FOTBuilder6SymbolE
libostyle.so.0:_ZThn16_N14OpenJade_DSSSL14SaveFOTBuilder14setLineSpacingERKNS_10FOTBuilder10LengthSpecE
libostyle.so.0:_ZThn16_N14OpenJade_DSSSL14SaveFOTBuilder14setOrphanCountEl
libostyle.so.0:_ZThn16_N14OpenJade_DSSSL14SaveFOTBuilder14setRightMarginEl
libostyle.so.0:_ZThn16_N14OpenJade_DSSSL14SaveFOTBuilder14setScoreSpacesEb
libostyle.so.0:_ZThn16_N14OpenJade_DSSSL14SaveFOTBuilder14setSidelineSepERKNS_10FOTBuilder10LengthSpecE
libostyle.so.0:_ZThn16_N14OpenJade_DSSSL14SaveFOTBuilder14setStartIndentERKNS_10FOTBuilder10LengthSpecE
libostyle.so.0:_ZThn16_N14OpenJade_DSSSL14SaveFOTBuilder14setStartMarginERKNS_10FOTBuilder10LengthSpecE
libostyle.so.0:_ZThn16_N14OpenJade_DSSSL14SaveFOTBuilder14setWritingModeENS_10FOTBuilder6SymbolE
libostyle.so.0:_ZThn16_N14OpenJade_DSSSL14SaveFOTBuilder14startExtensionERKNS_10FOTBuilder24CompoundExtensionFlowObjERKN14OpenJade_Grove7NodePtrERN6OpenSP6VectorIPS1_EE
libostyle.so.0:_ZThn16_N14OpenJade_DSSSL14SaveFOTBuilder14startLineFieldERKNS_10FOTBuilder9InlineNICE
libostyle.so.0:_ZThn16_N14OpenJade_DSSSL14SaveFOTBuilder14startMultiModeEPKNS_10FOTBuilder9MultiModeERKN6OpenSP6VectorIS2_EERNS6_IPS1_EE
libostyle.so.0:_ZThn16_N14OpenJade_DSSSL14SaveFOTBuilder14startParagraphERKNS_10FOTBuilder10DisplayNICE
libostyle.so.0:_ZThn16_N14OpenJade_DSSSL14SaveFOTBuilder14startSubscriptEv
libostyle.so.0:_ZThn16_N14OpenJade_DSSSL14SaveFOTBuilder14startTableCellERKNS_10FOTBuilder12TableCellNICE
libostyle.so.0:_ZThn16_N14OpenJade_DSSSL14SaveFOTBuilder14startTablePartERKNS_10FOTBuilder10DisplayNICERPS1_S6_
libostyle.so.0:_ZThn16_N14OpenJade_DSSSL14SaveFOTBuilder15endDisplayGroupEv
libostyle.so.0:_ZThn16_N14OpenJade_DSSSL14SaveFOTBuilder15endMathOperatorEv
libostyle.so.0:_ZThn16_N14OpenJade_DSSSL14SaveFOTBuilder15endMathSequenceEv
libostyle.so.0:_ZThn16_N14OpenJade_DSSSL14SaveFOTBuilder15externalGraphicERKNS_10FOTBuilder18ExternalGraphicNICE
libostyle.so.0:_ZThn16_N14OpenJade_DSSSL14SaveFOTBuilder15setBottomMarginEl
libostyle.so.0:_ZThn16_N14OpenJade_DSSSL14SaveFOTBuilder15setBoxSizeAfterEl
libostyle.so.0:_ZThn16_N14OpenJade_DSSSL14SaveFOTBuilder15setFooterMarginEl
libostyle.so.0:_ZThn16_N14OpenJade_DSSSL14SaveFOTBuilder15setHangingPunctEb
libostyle.so.0:_ZThn16_N14OpenJade_DSSSL14SaveFOTBuilder15setHeaderMarginEl
libostyle.so.0:_ZThn16_N14OpenJade_DSSSL14SaveFOTBuilder15setSidelineSideENS_10FOTBuilder6SymbolE
libostyle.so.0:_ZThn16_N14OpenJade_DSSSL14SaveFOTBuilder15startMarginaliaEv
libostyle.so.0:_ZThn16_N14OpenJade_DSSSL14SaveFOTBuilder16asSaveFOTBuilderEv
libostyle.so.0:_ZThn16_N14OpenJade_DSSSL14SaveFOTBuilder16setBorderPresentEb
libostyle.so.0:_ZThn16_N14OpenJade_DSSSL14SaveFOTBuilder16setBoxSizeBeforeEl
libostyle.so.0:_ZThn16_N14OpenJade_DSSSL14SaveFOTBuilder16setFontStructureENS_10FOTBuilder6SymbolE
libostyle.so.0:_ZThn16_N14OpenJade_DSSSL14SaveFOTBuilder16setLineNumberSepERKNS_10FOTBuilder10LengthSpecE
libostyle.so.0:_ZThn16_N14OpenJade_DSSSL14SaveFOTBuilder16setLineThicknessEl
libostyle.so.0:_ZThn16_N14OpenJade_DSSSL14SaveFOTBuilder16setMarginaliaSepERKNS_10FOTBuilder10LengthSpecE
libostyle.so.0:_ZThn16_N14OpenJade_DSSSL14SaveFOTBuilder16setNumberedLinesEb
libostyle.so.0:_ZThn16_N14OpenJade_DSSSL14SaveFOTBuilder16startSuperscriptEv
libostyle.so.0:_ZThn16_N14OpenJade_DSSSL14SaveFOTBuilder17setAsisWrapIndentERKNS_10FOTBuilder10LengthSpecE
libostyle.so.0:_ZThn16_N14OpenJade_DSSSL14SaveFOTBuilder17setBackgroundTileEPKc
libostyle.so.0:_ZThn16_N14OpenJade_DSSSL14SaveFOTBuilder17setBorderPriorityEl
libostyle.so.0:_ZThn16_N14OpenJade_DSSSL14SaveFOTBuilder17setCellBackgroundEb
libostyle.so.0:_ZThn16_N14OpenJade_DSSSL14SaveFOTBuilder17setFontFamilyNameERKN6OpenSP6StringIjEE
libostyle.so.0:_ZThn16_N14OpenJade_DSSSL14SaveFOTBuilder17setLineNumberSideENS_10FOTBuilder6SymbolE
libostyle.so.0:_ZThn16_N14OpenJade_DSSSL14SaveFOTBuilder17setMarginaliaSideENS_10FOTBuilder6SymbolE
libostyle.so.0:_ZThn16_N14OpenJade_DSSSL14SaveFOTBuilder17setNumeratorAlignENS_10FOTBuilder6SymbolE
libostyle.so.0:_ZThn16_N14OpenJade_DSSSL14SaveFOTBuilder17setScriptPreAlignENS_10FOTBuilder6SymbolE
libostyle.so.0:_ZThn16_N14OpenJade_DSSSL14SaveFOTBuilder17setTruncateLeaderEb
libostyle.so.0:_ZThn16_N14OpenJade_DSSSL14SaveFOTBuilder17startDisplayGroupERKNS_10FOTBuilder15DisplayGroupNICE
libostyle.so.0:_ZThn16_N14OpenJade_DSSSL14SaveFOTBuilder17startMathOperatorERPNS_10FOTBuilderES3_S3_
libostyle.so.0:_ZThn16_N14OpenJade_DSSSL14SaveFOTBuilder17startMathSequenceEv
libostyle.so.0:_ZThn16_N14OpenJade_DSSSL14SaveFOTBuilder18charactersFromNodeERKN14OpenJade_Grove7NodePtrEPKjm
libostyle.so.0:_ZThn16_N14OpenJade_DSSSL14SaveFOTBuilder18setBackgroundColorERKNS_10FOTBuilder14DeviceRGBColorE
libostyle.so.0:_ZThn16_N14OpenJade_DSSSL14SaveFOTBuilder18setBackgroundColorEv
libostyle.so.0:_ZThn16_N14OpenJade_DSSSL14SaveFOTBuilder18setBackgroundLayerEl
libostyle.so.0:_ZThn16_N14OpenJade_DSSSL14SaveFOTBuilder18setBorderAlignmentENS_10FOTBuilder6SymbolE
libostyle.so.0:_ZThn16_N14OpenJade_DSSSL14SaveFOTBuilder18setBoxCornerRadiusERKNS_10FOTBuilder10LengthSpecE
libostyle.so.0:_ZThn16_N14OpenJade_DSSSL14SaveFOTBuilder18setGlyphSubstTableERKN6OpenSP6VectorINS1_8ConstPtrINS_10FOTBuilder15GlyphSubstTableEEEEE
libostyle.so.0:_ZThn16_N14OpenJade_DSSSL14SaveFOTBuilder18setHyphenationKeepENS_10FOTBuilder6SymbolE
libostyle.so.0:_ZThn16_N14OpenJade_DSSSL14SaveFOTBuilder18setIgnoreRecordEndEb
libostyle.so.0:_ZThn16_N14OpenJade_DSSSL14SaveFOTBuilder18setMathDisplayModeENS_10FOTBuilder6SymbolE
libostyle.so.0:_ZThn16_N14OpenJade_DSSSL14SaveFOTBuilder18setMinLeaderRepeatEl
libostyle.so.0:_ZThn16_N14OpenJade_DSSSL14SaveFOTBuilder18setScriptPostAlignENS_10FOTBuilder6SymbolE
libostyle.so.0:_ZThn16_N14OpenJade_DSSSL14SaveFOTBuilder19setCellRowAlignmentENS_10FOTBuilder6SymbolE
libostyle.so.0:_ZThn16_N14OpenJade_DSSSL14SaveFOTBuilder19setDenominatorAlignENS_10FOTBuilder6SymbolE
libostyle.so.0:_ZThn16_N14OpenJade_DSSSL14SaveFOTBuilder19setDisplayAlignmentENS_10FOTBuilder6SymbolE
libostyle.so.0:_ZThn16_N14OpenJade_DSSSL14SaveFOTBuilder19setFillingDirectionENS_10FOTBuilder6SymbolE
libostyle.so.0:_ZThn16_N14OpenJade_DSSSL14SaveFOTBuilder19setGlyphSubstMethodEPKc
libostyle.so.0:_ZThn16_N14OpenJade_DSSSL14SaveFOTBuilder19setGridRowAlignmentENS_10FOTBuilder6SymbolE
libostyle.so.0:_ZThn16_N14OpenJade_DSSSL14SaveFOTBuilder19setLastLineQuaddingENS_10FOTBuilder6SymbolE
libostyle.so.0:_ZThn16_N14OpenJade_DSSSL14SaveFOTBuilder19tableAfterRowBorderEv
libostyle.so.0:_ZThn16_N14OpenJade_DSSSL14SaveFOTBuilder20setBorderOmitAtBreakEb
libostyle.so.0:_ZThn16_N14OpenJade_DSSSL14SaveFOTBuilder20setFloatOutSidelinesEb
libostyle.so.0:_ZThn16_N14OpenJade_DSSSL14SaveFOTBuilder20setHyphenationMethodEPKc
libostyle.so.0:_ZThn16_N14OpenJade_DSSSL14SaveFOTBuilder20setInhibitLineBreaksEb
libostyle.so.0:_ZThn16_N14OpenJade_DSSSL14SaveFOTBuilder20setLastLineEndIndentERKNS_10FOTBuilder10LengthSpecE
libostyle.so.0:_ZThn16_N14OpenJade_DSSSL14SaveFOTBuilder20setMinPreLineSpacingERKNS_10FOTBuilder13OptLengthSpecE
libostyle.so.0:_ZThn16_N14OpenJade_DSSSL14SaveFOTBuilder20setScriptMidSubAlignENS_10FOTBuilder6SymbolE
libostyle.so.0:_ZThn16_N14OpenJade_DSSSL14SaveFOTBuilder20setScriptMidSupAlignENS_10FOTBuilder6SymbolE
libostyle.so.0:_ZThn16_N14OpenJade_DSSSL14SaveFOTBuilder20setTableCornerRadiusERKNS_10FOTBuilder10LengthSpecE
libostyle.so.0:_ZThn16_N14OpenJade_DSSSL14SaveFOTBuilder20tableBeforeRowBorderEv
libostyle.so.0:_ZThn16_N14OpenJade_DSSSL14SaveFOTBuilder21currentNodePageNumberERKN14OpenJade_Grove7NodePtrE
libostyle.so.0:_ZThn16_N14OpenJade_DSSSL14SaveFOTBuilder21endSimplePageSequenceEv
libostyle.so.0:_ZThn16_N14OpenJade_DSSSL14SaveFOTBuilder21formattingInstructionERKN6OpenSP6StringIjEE
libostyle.so.0:_ZThn16_N14OpenJade_DSSSL14SaveFOTBuilder21setBoxBorderAlignmentENS_10FOTBuilder6SymbolE
libostyle.so.0:_ZThn16_N14OpenJade_DSSSL14SaveFOTBuilder21setCellAfterRowMarginEl
libostyle.so.0:_ZThn16_N14OpenJade_DSSSL14SaveFOTBuilder21setFloatOutMarginaliaEb
libostyle.so.0:_ZThn16_N14OpenJade_DSSSL14SaveFOTBuilder21setGlyphAlignmentModeENS_10FOTBuilder6SymbolE
libostyle.so.0:_ZThn16_N14OpenJade_DSSSL14SaveFOTBuilder21setGlyphReorderMethodEPKc
libostyle.so.0:_ZThn16_N14OpenJade_DSSSL14SaveFOTBuilder21setImplicitBidiMethodEPKc
libostyle.so.0:_ZThn16_N14OpenJade_DSSSL14SaveFOTBuilder21setLineBreakingMethodEPKc
libostyle.so.0:_ZThn16_N14OpenJade_DSSSL14SaveFOTBuilder21setMinPostLineSpacingERKNS_10FOTBuilder13OptLengthSpecE
libostyle.so.0:_ZThn16_N14OpenJade_DSSSL14SaveFOTBuilder21setPositionPointShiftERKNS_10FOTBuilder10LengthSpecE
libostyle.so.0:_ZThn16_N14OpenJade_DSSSL14SaveFOTBuilder22setCellBeforeRowMarginEl
libostyle.so.0:_ZThn16_N14OpenJade_DSSSL14SaveFOTBuilder22setFloatOutLineNumbersEb
libostyle.so.0:_ZThn16_N14OpenJade_DSSSL14SaveFOTBuilder22setGridColumnAlignmentENS_10FOTBuilder6SymbolE
libostyle.so.0:_ZThn16_N14OpenJade_DSSSL14SaveFOTBuilder22setGridEquidistantRowsEb
libostyle.so.0:_ZThn16_N14OpenJade_DSSSL14SaveFOTBuilder22tableAfterColumnBorderEv
libostyle.so.0:_ZThn16_N14OpenJade_DSSSL14SaveFOTBuilder23radicalRadicalDefaultedEv
libostyle.so.0:_ZThn16_N14OpenJade_DSSSL14SaveFOTBuilder23setEscapementSpaceAfterERKNS_10FOTBuilder11InlineSpaceE
libostyle.so.0:_ZThn16_N14OpenJade_DSSSL14SaveFOTBuilder23setFirstLineStartIndentERKNS_10FOTBuilder10LengthSpecE
libostyle.so.0:_ZThn16_N14OpenJade_DSSSL14SaveFOTBuilder23setGridPositionCellTypeENS_10FOTBuilder6SymbolE
libostyle.so.0:_ZThn16_N14OpenJade_DSSSL14SaveFOTBuilder23setLastLineJustifyLimitERKNS_10FOTBuilder10LengthSpecE
libostyle.so.0:_ZThn16_N14OpenJade_DSSSL14SaveFOTBuilder23setTableAutoWidthMethodEPKc
libostyle.so.0:_ZThn16_N14OpenJade_DSSSL14SaveFOTBuilder23startSimplePageSequenceEPPNS_10FOTBuilderE
libostyle.so.0:_ZThn16_N14OpenJade_DSSSL14SaveFOTBuilder23tableBeforeColumnBorderEv
libostyle.so.0:_ZThn16_N14OpenJade_DSSSL14SaveFOTBuilder23tableCellAfterRowBorderEv
libostyle.so.0:_ZThn16_N14OpenJade_DSSSL14SaveFOTBuilder24setCellAfterColumnMarginEl
libostyle.so.0:_ZThn16_N14OpenJade_DSSSL14SaveFOTBuilder24setEscapementSpaceBeforeERKNS_10FOTBuilder11InlineSpaceE
libostyle.so.0:_ZThn16_N14OpenJade_DSSSL14SaveFOTBuilder24setLineCompositionMethodEPKc
libostyle.so.0:_ZThn16_N14OpenJade_DSSSL14SaveFOTBuilder24tableCellBeforeRowBorderEv
libostyle.so.0:_ZThn16_N14OpenJade_DSSSL14SaveFOTBuilder25setCellBeforeColumnMarginEl
libostyle.so.0:_ZThn16_N14OpenJade_DSSSL14SaveFOTBuilder25setFontProportionateWidthENS_10FOTBuilder6SymbolE
libostyle.so.0:_ZThn16_N14OpenJade_DSSSL14SaveFOTBuilder25setGridEquidistantColumnsEb
libostyle.so.0:_ZThn16_N14OpenJade_DSSSL14SaveFOTBuilder25setHyphenationLadderCountEl
libostyle.so.0:_ZThn16_N14OpenJade_DSSSL14SaveFOTBuilder26setJustifyGlyphSpaceMaxAddERKNS_10FOTBuilder10LengthSpecE
libostyle.so.0:_ZThn16_N14OpenJade_DSSSL14SaveFOTBuilder26tableCellAfterColumnBorderEv
libostyle.so.0:_ZThn16_N14OpenJade_DSSSL14SaveFOTBuilder27setHyphenationPushCharCountEl
libostyle.so.0:_ZThn16_N14OpenJade_DSSSL14SaveFOTBuilder27setInputWhitespaceTreatmentENS_10FOTBuilder6SymbolE
libostyle.so.0:_ZThn16_N14OpenJade_DSSSL14SaveFOTBuilder27tableCellBeforeColumnBorderEv
libostyle.so.0:_ZThn16_N14OpenJade_DSSSL14SaveFOTBuilder28setPrincipalModeSimultaneousEb
libostyle.so.0:_ZThn16_N14OpenJade_DSSSL14SaveFOTBuilder28setTablePartOmitMiddleFooterEb
libostyle.so.0:_ZThn16_N14OpenJade_DSSSL14SaveFOTBuilder28setTablePartOmitMiddleHeaderEb
libostyle.so.0:_ZThn16_N14OpenJade_DSSSL14SaveFOTBuilder29setHyphenationRemainCharCountEl
libostyle.so.0:_ZThn16_N14OpenJade_DSSSL14SaveFOTBuilder29setJustifyGlyphSpaceMaxRemoveERKNS_10FOTBuilder10LengthSpecE
libostyle.so.0:_ZThn16_N14OpenJade_DSSSL14SaveFOTBuilder29setMarginaliaKeepWithPreviousEb
libostyle.so.0:_ZThn16_N14OpenJade_DSSSL14SaveFOTBuilder33endSimplePageSequenceHeaderFooterEv
libostyle.so.0:_ZThn16_N14OpenJade_DSSSL14SaveFOTBuilder4ruleERKNS_10FOTBuilder7RuleNICE
libostyle.so.0:_ZThn16_N14OpenJade_DSSSL14SaveFOTBuilder6endBoxEv
libostyle.so.0:_ZThn16_N14OpenJade_DSSSL14SaveFOTBuilder7endGridEv
libostyle.so.0:_ZThn16_N14OpenJade_DSSSL14SaveFOTBuilder7endLinkEv
libostyle.so.0:_ZThn16_N14OpenJade_DSSSL14SaveFOTBuilder7endMarkEv
libostyle.so.0:_ZThn16_N14OpenJade_DSSSL14SaveFOTBuilder7endNodeEv
libostyle.so.0:_ZThn16_N14OpenJade_DSSSL14SaveFOTBuilder7setKernEb
libostyle.so.0:_ZThn16_N14OpenJade_DSSSL14SaveFOTBuilder7setSpanEl
libostyle.so.0:_ZThn16_N14OpenJade_DSSSL14SaveFOTBuilder8endFenceEv
libostyle.so.0:_ZThn16_N14OpenJade_DSSSL14SaveFOTBuilder8endScoreEv
libostyle.so.0:_ZThn16_N14OpenJade_DSSSL14SaveFOTBuilder8endTableEv
libostyle.so.0:_ZThn16_N14OpenJade_DSSSL14SaveFOTBuilder8setColorERKNS_10FOTBuilder14DeviceRGBColorE
libostyle.so.0:_ZThn16_N14OpenJade_DSSSL14SaveFOTBuilder8setLayerEl
libostyle.so.0:_ZThn16_N14OpenJade_DSSSL14SaveFOTBuilder8setLinesENS_10FOTBuilder6SymbolE
libostyle.so.0:_ZThn16_N14OpenJade_DSSSL14SaveFOTBuilder8startBoxERKNS_10FOTBuilder6BoxNICE
libostyle.so.0:_ZThn16_N14OpenJade_DSSSL14SaveFOTBuilder9characterERKNS_10FOTBuilder12CharacterNICE
libostyle.so.0:_ZThn16_N14OpenJade_DSSSL14SaveFOTBuilder9endLeaderEv
libostyle.so.0:_ZThn16_N14OpenJade_DSSSL14SaveFOTBuilder9endScriptEv
libostyle.so.0:_ZThn16_N14OpenJade_DSSSL14SaveFOTBuilder9endScrollEv
libostyle.so.0:_ZThn16_N14OpenJade_DSSSL14SaveFOTBuilder9endUnmathEv
libostyle.so.0:_ZThn16_N14OpenJade_DSSSL14SaveFOTBuilder9extensionERKNS_10FOTBuilder16ExtensionFlowObjERKN14OpenJade_Grove7NodePtrE
libostyle.so.0:_ZThn16_N14OpenJade_DSSSL14SaveFOTBuilder9startGridERKNS_10FOTBuilder7GridNICE
libostyle.so.0:_ZThn16_N14OpenJade_DSSSL14SaveFOTBuilder9startLinkERKNS_10FOTBuilder7AddressE
libostyle.so.0:_ZThn16_N14OpenJade_DSSSL14SaveFOTBuilder9startMarkERPNS_10FOTBuilderES3_
libostyle.so.0:_ZThn16_N14OpenJade_DSSSL14SaveFOTBuilder9startNodeERKN14OpenJade_Grove7NodePtrERKN6OpenSP6StringIjEE
libostyle.so.0:_ZThn16_N14OpenJade_DSSSL14SaveFOTBuilderD0Ev
libostyle.so.0:_ZThn16_N14OpenJade_DSSSL14SaveFOTBuilderD1Ev
libostyle.so.0:_ZThn24_N14OpenJade_DSSSL21DssslSpecEventHandler15arcEventHandlerEPKN6OpenSP6StringIjEEPKNS1_8NotationERKNS1_6VectorIS3_EEPKNS1_10SubstTableE
libostyle.so.0:_ZThn304_N14OpenJade_DSSSL11Interpreter15dispatchMessageERKN6OpenSP7MessageE
libostyle.so.0:_ZThn304_N14OpenJade_DSSSL11Interpreter15dispatchMessageERN6OpenSP7MessageE
libostyle.so.0:_ZThn32_NK14OpenJade_DSSSL16BackgroundColorC5traceER9Collector
libostyle.so.0:_ZThn32_NK14OpenJade_DSSSL6ColorC5traceER9Collector
libostyle.so.0:_ZThn32_NK14OpenJade_DSSSL8IgnoredC5traceER9Collector
libostyle.so.0:_ZThn696_N14OpenJade_DSSSL8DssslApp10readEntityERKN6OpenSP6StringIjEERS3_
libostyle.so.0:_ZThn696_N14OpenJade_DSSSL8DssslApp4loadERKN6OpenSP6StringIjEERKNS1_6VectorIS3_EERKN14OpenJade_Grove7NodePtrERSB_S9_
libostyle.so.0:_ZThn696_N14OpenJade_DSSSL8DssslApp8mapSysidERN6OpenSP6StringIjEE
